
test.elf:     file format elf32-littlearm

Sections:
Idx Name          Size      VMA       LMA       File off  Algn
  0 .isr_vector   000001c4  08000000  08000000  00010000  2**0
                  CONTENTS, ALLOC, LOAD, READONLY, DATA
  1 .text         00002d9c  080001d0  080001d0  000101d0  2**4
                  CONTENTS, ALLOC, LOAD, READONLY, CODE
  2 .rodata       000000d4  08002f6c  08002f6c  00012f6c  2**2
                  CONTENTS, ALLOC, LOAD, READONLY, DATA
  3 .ARM.extab    00000000  08003040  08003040  00020070  2**0
                  CONTENTS
  4 .ARM          00000008  08003040  08003040  00013040  2**2
                  CONTENTS, ALLOC, LOAD, READONLY, DATA
  5 .preinit_array 00000000  08003048  08003048  00020070  2**0
                  CONTENTS, ALLOC, LOAD, DATA
  6 .init_array   00000004  08003048  08003048  00013048  2**2
                  CONTENTS, ALLOC, LOAD, DATA
  7 .fini_array   00000004  0800304c  0800304c  0001304c  2**2
                  CONTENTS, ALLOC, LOAD, DATA
  8 .data         00000070  20000000  08003050  00020000  2**2
                  CONTENTS, ALLOC, LOAD, DATA
  9 .bss          00000154  20000070  080030c0  00020070  2**2
                  ALLOC
 10 ._user_heap_stack 00000604  200001c4  080030c0  000201c4  2**0
                  ALLOC
 11 .ARM.attributes 00000030  00000000  00000000  00020070  2**0
                  CONTENTS, READONLY
 12 .comment      0000007b  00000000  00000000  000200a0  2**0
                  CONTENTS, READONLY
 13 .debug_frame  000007c4  00000000  00000000  0002011c  2**2
                  CONTENTS, READONLY, DEBUGGING

Disassembly of section .text:

080001d0 <__do_global_dtors_aux>:
 80001d0:	b510      	push	{r4, lr}
 80001d2:	4c05      	ldr	r4, [pc, #20]	; (80001e8 <__do_global_dtors_aux+0x18>)
 80001d4:	7823      	ldrb	r3, [r4, #0]
 80001d6:	b933      	cbnz	r3, 80001e6 <__do_global_dtors_aux+0x16>
 80001d8:	4b04      	ldr	r3, [pc, #16]	; (80001ec <__do_global_dtors_aux+0x1c>)
 80001da:	b113      	cbz	r3, 80001e2 <__do_global_dtors_aux+0x12>
 80001dc:	4804      	ldr	r0, [pc, #16]	; (80001f0 <__do_global_dtors_aux+0x20>)
 80001de:	f3af 8000 	nop.w
 80001e2:	2301      	movs	r3, #1
 80001e4:	7023      	strb	r3, [r4, #0]
 80001e6:	bd10      	pop	{r4, pc}
 80001e8:	20000070 	.word	0x20000070
 80001ec:	00000000 	.word	0x00000000
 80001f0:	08002f54 	.word	0x08002f54

080001f4 <frame_dummy>:
 80001f4:	b508      	push	{r3, lr}
 80001f6:	4b03      	ldr	r3, [pc, #12]	; (8000204 <frame_dummy+0x10>)
 80001f8:	b11b      	cbz	r3, 8000202 <frame_dummy+0xe>
 80001fa:	4903      	ldr	r1, [pc, #12]	; (8000208 <frame_dummy+0x14>)
 80001fc:	4803      	ldr	r0, [pc, #12]	; (800020c <frame_dummy+0x18>)
 80001fe:	f3af 8000 	nop.w
 8000202:	bd08      	pop	{r3, pc}
 8000204:	00000000 	.word	0x00000000
 8000208:	20000074 	.word	0x20000074
 800020c:	08002f54 	.word	0x08002f54

08000210 <memchr>:
 8000210:	f001 01ff 	and.w	r1, r1, #255	; 0xff
 8000214:	2a10      	cmp	r2, #16
 8000216:	db2b      	blt.n	8000270 <memchr+0x60>
 8000218:	f010 0f07 	tst.w	r0, #7
 800021c:	d008      	beq.n	8000230 <memchr+0x20>
 800021e:	f810 3b01 	ldrb.w	r3, [r0], #1
 8000222:	3a01      	subs	r2, #1
 8000224:	428b      	cmp	r3, r1
 8000226:	d02d      	beq.n	8000284 <memchr+0x74>
 8000228:	f010 0f07 	tst.w	r0, #7
 800022c:	b342      	cbz	r2, 8000280 <memchr+0x70>
 800022e:	d1f6      	bne.n	800021e <memchr+0xe>
 8000230:	b4f0      	push	{r4, r5, r6, r7}
 8000232:	ea41 2101 	orr.w	r1, r1, r1, lsl #8
 8000236:	ea41 4101 	orr.w	r1, r1, r1, lsl #16
 800023a:	f022 0407 	bic.w	r4, r2, #7
 800023e:	f07f 0700 	mvns.w	r7, #0
 8000242:	2300      	movs	r3, #0
 8000244:	e8f0 5602 	ldrd	r5, r6, [r0], #8
 8000248:	3c08      	subs	r4, #8
 800024a:	ea85 0501 	eor.w	r5, r5, r1
 800024e:	ea86 0601 	eor.w	r6, r6, r1
 8000252:	fa85 f547 	uadd8	r5, r5, r7
 8000256:	faa3 f587 	sel	r5, r3, r7
 800025a:	fa86 f647 	uadd8	r6, r6, r7
 800025e:	faa5 f687 	sel	r6, r5, r7
 8000262:	b98e      	cbnz	r6, 8000288 <memchr+0x78>
 8000264:	d1ee      	bne.n	8000244 <memchr+0x34>
 8000266:	bcf0      	pop	{r4, r5, r6, r7}
 8000268:	f001 01ff 	and.w	r1, r1, #255	; 0xff
 800026c:	f002 0207 	and.w	r2, r2, #7
 8000270:	b132      	cbz	r2, 8000280 <memchr+0x70>
 8000272:	f810 3b01 	ldrb.w	r3, [r0], #1
 8000276:	3a01      	subs	r2, #1
 8000278:	ea83 0301 	eor.w	r3, r3, r1
 800027c:	b113      	cbz	r3, 8000284 <memchr+0x74>
 800027e:	d1f8      	bne.n	8000272 <memchr+0x62>
 8000280:	2000      	movs	r0, #0
 8000282:	4770      	bx	lr
 8000284:	3801      	subs	r0, #1
 8000286:	4770      	bx	lr
 8000288:	2d00      	cmp	r5, #0
 800028a:	bf06      	itte	eq
 800028c:	4635      	moveq	r5, r6
 800028e:	3803      	subeq	r0, #3
 8000290:	3807      	subne	r0, #7
 8000292:	f015 0f01 	tst.w	r5, #1
 8000296:	d107      	bne.n	80002a8 <memchr+0x98>
 8000298:	3001      	adds	r0, #1
 800029a:	f415 7f80 	tst.w	r5, #256	; 0x100
 800029e:	bf02      	ittt	eq
 80002a0:	3001      	addeq	r0, #1
 80002a2:	f415 3fc0 	tsteq.w	r5, #98304	; 0x18000
 80002a6:	3001      	addeq	r0, #1
 80002a8:	bcf0      	pop	{r4, r5, r6, r7}
 80002aa:	3801      	subs	r0, #1
 80002ac:	4770      	bx	lr
 80002ae:	bf00      	nop

080002b0 <__aeabi_uldivmod>:
 80002b0:	b953      	cbnz	r3, 80002c8 <__aeabi_uldivmod+0x18>
 80002b2:	b94a      	cbnz	r2, 80002c8 <__aeabi_uldivmod+0x18>
 80002b4:	2900      	cmp	r1, #0
 80002b6:	bf08      	it	eq
 80002b8:	2800      	cmpeq	r0, #0
 80002ba:	bf1c      	itt	ne
 80002bc:	f04f 31ff 	movne.w	r1, #4294967295
 80002c0:	f04f 30ff 	movne.w	r0, #4294967295
 80002c4:	f000 b972 	b.w	80005ac <__aeabi_idiv0>
 80002c8:	f1ad 0c08 	sub.w	ip, sp, #8
 80002cc:	e96d ce04 	strd	ip, lr, [sp, #-16]!
 80002d0:	f000 f806 	bl	80002e0 <__udivmoddi4>
 80002d4:	f8dd e004 	ldr.w	lr, [sp, #4]
 80002d8:	e9dd 2302 	ldrd	r2, r3, [sp, #8]
 80002dc:	b004      	add	sp, #16
 80002de:	4770      	bx	lr

080002e0 <__udivmoddi4>:
 80002e0:	e92d 47f0 	stmdb	sp!, {r4, r5, r6, r7, r8, r9, sl, lr}
 80002e4:	9e08      	ldr	r6, [sp, #32]
 80002e6:	4604      	mov	r4, r0
 80002e8:	4688      	mov	r8, r1
 80002ea:	2b00      	cmp	r3, #0
 80002ec:	d14b      	bne.n	8000386 <__udivmoddi4+0xa6>
 80002ee:	428a      	cmp	r2, r1
 80002f0:	4615      	mov	r5, r2
 80002f2:	d967      	bls.n	80003c4 <__udivmoddi4+0xe4>
 80002f4:	fab2 f282 	clz	r2, r2
 80002f8:	b14a      	cbz	r2, 800030e <__udivmoddi4+0x2e>
 80002fa:	f1c2 0720 	rsb	r7, r2, #32
 80002fe:	fa01 f302 	lsl.w	r3, r1, r2
 8000302:	fa20 f707 	lsr.w	r7, r0, r7
 8000306:	4095      	lsls	r5, r2
 8000308:	ea47 0803 	orr.w	r8, r7, r3
 800030c:	4094      	lsls	r4, r2
 800030e:	ea4f 4e15 	mov.w	lr, r5, lsr #16
 8000312:	0c23      	lsrs	r3, r4, #16
 8000314:	fbb8 f7fe 	udiv	r7, r8, lr
 8000318:	fa1f fc85 	uxth.w	ip, r5
 800031c:	fb0e 8817 	mls	r8, lr, r7, r8
 8000320:	ea43 4308 	orr.w	r3, r3, r8, lsl #16
 8000324:	fb07 f10c 	mul.w	r1, r7, ip
 8000328:	4299      	cmp	r1, r3
 800032a:	d909      	bls.n	8000340 <__udivmoddi4+0x60>
 800032c:	18eb      	adds	r3, r5, r3
 800032e:	f107 30ff 	add.w	r0, r7, #4294967295
 8000332:	f080 811b 	bcs.w	800056c <__udivmoddi4+0x28c>
 8000336:	4299      	cmp	r1, r3
 8000338:	f240 8118 	bls.w	800056c <__udivmoddi4+0x28c>
 800033c:	3f02      	subs	r7, #2
 800033e:	442b      	add	r3, r5
 8000340:	1a5b      	subs	r3, r3, r1
 8000342:	b2a4      	uxth	r4, r4
 8000344:	fbb3 f0fe 	udiv	r0, r3, lr
 8000348:	fb0e 3310 	mls	r3, lr, r0, r3
 800034c:	ea44 4403 	orr.w	r4, r4, r3, lsl #16
 8000350:	fb00 fc0c 	mul.w	ip, r0, ip
 8000354:	45a4      	cmp	ip, r4
 8000356:	d909      	bls.n	800036c <__udivmoddi4+0x8c>
 8000358:	192c      	adds	r4, r5, r4
 800035a:	f100 33ff 	add.w	r3, r0, #4294967295
 800035e:	f080 8107 	bcs.w	8000570 <__udivmoddi4+0x290>
 8000362:	45a4      	cmp	ip, r4
 8000364:	f240 8104 	bls.w	8000570 <__udivmoddi4+0x290>
 8000368:	3802      	subs	r0, #2
 800036a:	442c      	add	r4, r5
 800036c:	ea40 4007 	orr.w	r0, r0, r7, lsl #16
 8000370:	eba4 040c 	sub.w	r4, r4, ip
 8000374:	2700      	movs	r7, #0
 8000376:	b11e      	cbz	r6, 8000380 <__udivmoddi4+0xa0>
 8000378:	40d4      	lsrs	r4, r2
 800037a:	2300      	movs	r3, #0
 800037c:	e9c6 4300 	strd	r4, r3, [r6]
 8000380:	4639      	mov	r1, r7
 8000382:	e8bd 87f0 	ldmia.w	sp!, {r4, r5, r6, r7, r8, r9, sl, pc}
 8000386:	428b      	cmp	r3, r1
 8000388:	d909      	bls.n	800039e <__udivmoddi4+0xbe>
 800038a:	2e00      	cmp	r6, #0
 800038c:	f000 80eb 	beq.w	8000566 <__udivmoddi4+0x286>
 8000390:	2700      	movs	r7, #0
 8000392:	e9c6 0100 	strd	r0, r1, [r6]
 8000396:	4638      	mov	r0, r7
 8000398:	4639      	mov	r1, r7
 800039a:	e8bd 87f0 	ldmia.w	sp!, {r4, r5, r6, r7, r8, r9, sl, pc}
 800039e:	fab3 f783 	clz	r7, r3
 80003a2:	2f00      	cmp	r7, #0
 80003a4:	d147      	bne.n	8000436 <__udivmoddi4+0x156>
 80003a6:	428b      	cmp	r3, r1
 80003a8:	d302      	bcc.n	80003b0 <__udivmoddi4+0xd0>
 80003aa:	4282      	cmp	r2, r0
 80003ac:	f200 80fa 	bhi.w	80005a4 <__udivmoddi4+0x2c4>
 80003b0:	1a84      	subs	r4, r0, r2
 80003b2:	eb61 0303 	sbc.w	r3, r1, r3
 80003b6:	2001      	movs	r0, #1
 80003b8:	4698      	mov	r8, r3
 80003ba:	2e00      	cmp	r6, #0
 80003bc:	d0e0      	beq.n	8000380 <__udivmoddi4+0xa0>
 80003be:	e9c6 4800 	strd	r4, r8, [r6]
 80003c2:	e7dd      	b.n	8000380 <__udivmoddi4+0xa0>
 80003c4:	b902      	cbnz	r2, 80003c8 <__udivmoddi4+0xe8>
 80003c6:	deff      	udf	#255	; 0xff
 80003c8:	fab2 f282 	clz	r2, r2
 80003cc:	2a00      	cmp	r2, #0
 80003ce:	f040 808f 	bne.w	80004f0 <__udivmoddi4+0x210>
 80003d2:	1b49      	subs	r1, r1, r5
 80003d4:	ea4f 4e15 	mov.w	lr, r5, lsr #16
 80003d8:	fa1f f885 	uxth.w	r8, r5
 80003dc:	2701      	movs	r7, #1
 80003de:	fbb1 fcfe 	udiv	ip, r1, lr
 80003e2:	0c23      	lsrs	r3, r4, #16
 80003e4:	fb0e 111c 	mls	r1, lr, ip, r1
 80003e8:	ea43 4301 	orr.w	r3, r3, r1, lsl #16
 80003ec:	fb08 f10c 	mul.w	r1, r8, ip
 80003f0:	4299      	cmp	r1, r3
 80003f2:	d907      	bls.n	8000404 <__udivmoddi4+0x124>
 80003f4:	18eb      	adds	r3, r5, r3
 80003f6:	f10c 30ff 	add.w	r0, ip, #4294967295
 80003fa:	d202      	bcs.n	8000402 <__udivmoddi4+0x122>
 80003fc:	4299      	cmp	r1, r3
 80003fe:	f200 80cd 	bhi.w	800059c <__udivmoddi4+0x2bc>
 8000402:	4684      	mov	ip, r0
 8000404:	1a59      	subs	r1, r3, r1
 8000406:	b2a3      	uxth	r3, r4
 8000408:	fbb1 f0fe 	udiv	r0, r1, lr
 800040c:	fb0e 1410 	mls	r4, lr, r0, r1
 8000410:	ea43 4404 	orr.w	r4, r3, r4, lsl #16
 8000414:	fb08 f800 	mul.w	r8, r8, r0
 8000418:	45a0      	cmp	r8, r4
 800041a:	d907      	bls.n	800042c <__udivmoddi4+0x14c>
 800041c:	192c      	adds	r4, r5, r4
 800041e:	f100 33ff 	add.w	r3, r0, #4294967295
 8000422:	d202      	bcs.n	800042a <__udivmoddi4+0x14a>
 8000424:	45a0      	cmp	r8, r4
 8000426:	f200 80b6 	bhi.w	8000596 <__udivmoddi4+0x2b6>
 800042a:	4618      	mov	r0, r3
 800042c:	eba4 0408 	sub.w	r4, r4, r8
 8000430:	ea40 400c 	orr.w	r0, r0, ip, lsl #16
 8000434:	e79f      	b.n	8000376 <__udivmoddi4+0x96>
 8000436:	f1c7 0c20 	rsb	ip, r7, #32
 800043a:	40bb      	lsls	r3, r7
 800043c:	fa22 fe0c 	lsr.w	lr, r2, ip
 8000440:	ea4e 0e03 	orr.w	lr, lr, r3
 8000444:	fa01 f407 	lsl.w	r4, r1, r7
 8000448:	fa20 f50c 	lsr.w	r5, r0, ip
 800044c:	fa21 f30c 	lsr.w	r3, r1, ip
 8000450:	ea4f 481e 	mov.w	r8, lr, lsr #16
 8000454:	4325      	orrs	r5, r4
 8000456:	fbb3 f9f8 	udiv	r9, r3, r8
 800045a:	0c2c      	lsrs	r4, r5, #16
 800045c:	fb08 3319 	mls	r3, r8, r9, r3
 8000460:	fa1f fa8e 	uxth.w	sl, lr
 8000464:	ea44 4303 	orr.w	r3, r4, r3, lsl #16
 8000468:	fb09 f40a 	mul.w	r4, r9, sl
 800046c:	429c      	cmp	r4, r3
 800046e:	fa02 f207 	lsl.w	r2, r2, r7
 8000472:	fa00 f107 	lsl.w	r1, r0, r7
 8000476:	d90b      	bls.n	8000490 <__udivmoddi4+0x1b0>
 8000478:	eb1e 0303 	adds.w	r3, lr, r3
 800047c:	f109 30ff 	add.w	r0, r9, #4294967295
 8000480:	f080 8087 	bcs.w	8000592 <__udivmoddi4+0x2b2>
 8000484:	429c      	cmp	r4, r3
 8000486:	f240 8084 	bls.w	8000592 <__udivmoddi4+0x2b2>
 800048a:	f1a9 0902 	sub.w	r9, r9, #2
 800048e:	4473      	add	r3, lr
 8000490:	1b1b      	subs	r3, r3, r4
 8000492:	b2ad      	uxth	r5, r5
 8000494:	fbb3 f0f8 	udiv	r0, r3, r8
 8000498:	fb08 3310 	mls	r3, r8, r0, r3
 800049c:	ea45 4403 	orr.w	r4, r5, r3, lsl #16
 80004a0:	fb00 fa0a 	mul.w	sl, r0, sl
 80004a4:	45a2      	cmp	sl, r4
 80004a6:	d908      	bls.n	80004ba <__udivmoddi4+0x1da>
 80004a8:	eb1e 0404 	adds.w	r4, lr, r4
 80004ac:	f100 33ff 	add.w	r3, r0, #4294967295
 80004b0:	d26b      	bcs.n	800058a <__udivmoddi4+0x2aa>
 80004b2:	45a2      	cmp	sl, r4
 80004b4:	d969      	bls.n	800058a <__udivmoddi4+0x2aa>
 80004b6:	3802      	subs	r0, #2
 80004b8:	4474      	add	r4, lr
 80004ba:	ea40 4009 	orr.w	r0, r0, r9, lsl #16
 80004be:	fba0 8902 	umull	r8, r9, r0, r2
 80004c2:	eba4 040a 	sub.w	r4, r4, sl
 80004c6:	454c      	cmp	r4, r9
 80004c8:	46c2      	mov	sl, r8
 80004ca:	464b      	mov	r3, r9
 80004cc:	d354      	bcc.n	8000578 <__udivmoddi4+0x298>
 80004ce:	d051      	beq.n	8000574 <__udivmoddi4+0x294>
 80004d0:	2e00      	cmp	r6, #0
 80004d2:	d069      	beq.n	80005a8 <__udivmoddi4+0x2c8>
 80004d4:	ebb1 050a 	subs.w	r5, r1, sl
 80004d8:	eb64 0403 	sbc.w	r4, r4, r3
 80004dc:	fa04 fc0c 	lsl.w	ip, r4, ip
 80004e0:	40fd      	lsrs	r5, r7
 80004e2:	40fc      	lsrs	r4, r7
 80004e4:	ea4c 0505 	orr.w	r5, ip, r5
 80004e8:	e9c6 5400 	strd	r5, r4, [r6]
 80004ec:	2700      	movs	r7, #0
 80004ee:	e747      	b.n	8000380 <__udivmoddi4+0xa0>
 80004f0:	f1c2 0320 	rsb	r3, r2, #32
 80004f4:	fa20 f703 	lsr.w	r7, r0, r3
 80004f8:	4095      	lsls	r5, r2
 80004fa:	fa01 f002 	lsl.w	r0, r1, r2
 80004fe:	fa21 f303 	lsr.w	r3, r1, r3
 8000502:	ea4f 4e15 	mov.w	lr, r5, lsr #16
 8000506:	4338      	orrs	r0, r7
 8000508:	0c01      	lsrs	r1, r0, #16
 800050a:	fbb3 f7fe 	udiv	r7, r3, lr
 800050e:	fa1f f885 	uxth.w	r8, r5
 8000512:	fb0e 3317 	mls	r3, lr, r7, r3
 8000516:	ea41 4103 	orr.w	r1, r1, r3, lsl #16
 800051a:	fb07 f308 	mul.w	r3, r7, r8
 800051e:	428b      	cmp	r3, r1
 8000520:	fa04 f402 	lsl.w	r4, r4, r2
 8000524:	d907      	bls.n	8000536 <__udivmoddi4+0x256>
 8000526:	1869      	adds	r1, r5, r1
 8000528:	f107 3cff 	add.w	ip, r7, #4294967295
 800052c:	d22f      	bcs.n	800058e <__udivmoddi4+0x2ae>
 800052e:	428b      	cmp	r3, r1
 8000530:	d92d      	bls.n	800058e <__udivmoddi4+0x2ae>
 8000532:	3f02      	subs	r7, #2
 8000534:	4429      	add	r1, r5
 8000536:	1acb      	subs	r3, r1, r3
 8000538:	b281      	uxth	r1, r0
 800053a:	fbb3 f0fe 	udiv	r0, r3, lr
 800053e:	fb0e 3310 	mls	r3, lr, r0, r3
 8000542:	ea41 4103 	orr.w	r1, r1, r3, lsl #16
 8000546:	fb00 f308 	mul.w	r3, r0, r8
 800054a:	428b      	cmp	r3, r1
 800054c:	d907      	bls.n	800055e <__udivmoddi4+0x27e>
 800054e:	1869      	adds	r1, r5, r1
 8000550:	f100 3cff 	add.w	ip, r0, #4294967295
 8000554:	d217      	bcs.n	8000586 <__udivmoddi4+0x2a6>
 8000556:	428b      	cmp	r3, r1
 8000558:	d915      	bls.n	8000586 <__udivmoddi4+0x2a6>
 800055a:	3802      	subs	r0, #2
 800055c:	4429      	add	r1, r5
 800055e:	1ac9      	subs	r1, r1, r3
 8000560:	ea40 4707 	orr.w	r7, r0, r7, lsl #16
 8000564:	e73b      	b.n	80003de <__udivmoddi4+0xfe>
 8000566:	4637      	mov	r7, r6
 8000568:	4630      	mov	r0, r6
 800056a:	e709      	b.n	8000380 <__udivmoddi4+0xa0>
 800056c:	4607      	mov	r7, r0
 800056e:	e6e7      	b.n	8000340 <__udivmoddi4+0x60>
 8000570:	4618      	mov	r0, r3
 8000572:	e6fb      	b.n	800036c <__udivmoddi4+0x8c>
 8000574:	4541      	cmp	r1, r8
 8000576:	d2ab      	bcs.n	80004d0 <__udivmoddi4+0x1f0>
 8000578:	ebb8 0a02 	subs.w	sl, r8, r2
 800057c:	eb69 020e 	sbc.w	r2, r9, lr
 8000580:	3801      	subs	r0, #1
 8000582:	4613      	mov	r3, r2
 8000584:	e7a4      	b.n	80004d0 <__udivmoddi4+0x1f0>
 8000586:	4660      	mov	r0, ip
 8000588:	e7e9      	b.n	800055e <__udivmoddi4+0x27e>
 800058a:	4618      	mov	r0, r3
 800058c:	e795      	b.n	80004ba <__udivmoddi4+0x1da>
 800058e:	4667      	mov	r7, ip
 8000590:	e7d1      	b.n	8000536 <__udivmoddi4+0x256>
 8000592:	4681      	mov	r9, r0
 8000594:	e77c      	b.n	8000490 <__udivmoddi4+0x1b0>
 8000596:	3802      	subs	r0, #2
 8000598:	442c      	add	r4, r5
 800059a:	e747      	b.n	800042c <__udivmoddi4+0x14c>
 800059c:	f1ac 0c02 	sub.w	ip, ip, #2
 80005a0:	442b      	add	r3, r5
 80005a2:	e72f      	b.n	8000404 <__udivmoddi4+0x124>
 80005a4:	4638      	mov	r0, r7
 80005a6:	e708      	b.n	80003ba <__udivmoddi4+0xda>
 80005a8:	4637      	mov	r7, r6
 80005aa:	e6e9      	b.n	8000380 <__udivmoddi4+0xa0>

080005ac <__aeabi_idiv0>:
 80005ac:	4770      	bx	lr
 80005ae:	bf00      	nop

080005b0 <sendPacket>:
 80005b0:	e92d 4ff0 	stmdb	sp!, {r4, r5, r6, r7, r8, r9, sl, fp, lr}
 80005b4:	b085      	sub	sp, #20
 80005b6:	af00      	add	r7, sp, #0
 80005b8:	26ff      	movs	r6, #255	; 0xff
 80005ba:	f897 a038 	ldrb.w	sl, [r7, #56]	; 0x38
 80005be:	6800      	ldr	r0, [r0, #0]
 80005c0:	f10a 0507 	add.w	r5, sl, #7
 80005c4:	b2ed      	uxtb	r5, r5
 80005c6:	1dec      	adds	r4, r5, #7
 80005c8:	f404 74fc 	and.w	r4, r4, #504	; 0x1f8
 80005cc:	ebad 0d04 	sub.w	sp, sp, r4
 80005d0:	ea81 0402 	eor.w	r4, r1, r2
 80005d4:	f88d 1003 	strb.w	r1, [sp, #3]
 80005d8:	f88d 5002 	strb.w	r5, [sp, #2]
 80005dc:	ea85 0104 	eor.w	r1, r5, r4
 80005e0:	f88d 2004 	strb.w	r2, [sp, #4]
 80005e4:	466c      	mov	r4, sp
 80005e6:	f88d 6000 	strb.w	r6, [sp]
 80005ea:	f88d 6001 	strb.w	r6, [sp, #1]
 80005ee:	fa1f fb85 	uxth.w	fp, r5
 80005f2:	2b00      	cmp	r3, #0
 80005f4:	f000 80af 	beq.w	8000756 <sendPacket+0x1a6>
 80005f8:	f1ba 0f00 	cmp.w	sl, #0
 80005fc:	f000 80d0 	beq.w	80007a0 <sendPacket+0x1f0>
 8000600:	f10a 3cff 	add.w	ip, sl, #4294967295
 8000604:	425e      	negs	r6, r3
 8000606:	f1bc 0f06 	cmp.w	ip, #6
 800060a:	f006 0603 	and.w	r6, r6, #3
 800060e:	f240 80df 	bls.w	80007d0 <sendPacket+0x220>
 8000612:	2e00      	cmp	r6, #0
 8000614:	f000 80d7 	beq.w	80007c6 <sendPacket+0x216>
 8000618:	f893 c000 	ldrb.w	ip, [r3]
 800061c:	f88d c007 	strb.w	ip, [sp, #7]
 8000620:	2e01      	cmp	r6, #1
 8000622:	ea81 010c 	eor.w	r1, r1, ip
 8000626:	f000 80ce 	beq.w	80007c6 <sendPacket+0x216>
 800062a:	f893 c001 	ldrb.w	ip, [r3, #1]
 800062e:	f88d c008 	strb.w	ip, [sp, #8]
 8000632:	2e03      	cmp	r6, #3
 8000634:	ea81 010c 	eor.w	r1, r1, ip
 8000638:	f040 80c7 	bne.w	80007ca <sendPacket+0x21a>
 800063c:	f893 c002 	ldrb.w	ip, [r3, #2]
 8000640:	f88d c009 	strb.w	ip, [sp, #9]
 8000644:	ea8c 0101 	eor.w	r1, ip, r1
 8000648:	603e      	str	r6, [r7, #0]
 800064a:	ebaa 0c06 	sub.w	ip, sl, r6
 800064e:	fa5f f28c 	uxtb.w	r2, ip
 8000652:	60fa      	str	r2, [r7, #12]
 8000654:	0892      	lsrs	r2, r2, #2
 8000656:	60ba      	str	r2, [r7, #8]
 8000658:	f106 0907 	add.w	r9, r6, #7
 800065c:	f04f 0c00 	mov.w	ip, #0
 8000660:	465a      	mov	r2, fp
 8000662:	f8d7 b008 	ldr.w	fp, [r7, #8]
 8000666:	6079      	str	r1, [r7, #4]
 8000668:	44a1      	add	r9, r4
 800066a:	441e      	add	r6, r3
 800066c:	46e0      	mov	r8, ip
 800066e:	f10c 0c01 	add.w	ip, ip, #1
 8000672:	f856 1b04 	ldr.w	r1, [r6], #4
 8000676:	f849 1b04 	str.w	r1, [r9], #4
 800067a:	fa5f fe8c 	uxtb.w	lr, ip
 800067e:	45f3      	cmp	fp, lr
 8000680:	ea81 0808 	eor.w	r8, r1, r8
 8000684:	d8f3      	bhi.n	800066e <sendPacket+0xbe>
 8000686:	6879      	ldr	r1, [r7, #4]
 8000688:	f3c8 2607 	ubfx	r6, r8, #8, #8
 800068c:	ea88 0606 	eor.w	r6, r8, r6
 8000690:	4071      	eors	r1, r6
 8000692:	4693      	mov	fp, r2
 8000694:	f3c8 4607 	ubfx	r6, r8, #16, #8
 8000698:	68fa      	ldr	r2, [r7, #12]
 800069a:	4071      	eors	r1, r6
 800069c:	683e      	ldr	r6, [r7, #0]
 800069e:	f002 0cfc 	and.w	ip, r2, #252	; 0xfc
 80006a2:	ea81 6118 	eor.w	r1, r1, r8, lsr #24
 80006a6:	4466      	add	r6, ip
 80006a8:	4562      	cmp	r2, ip
 80006aa:	b2c9      	uxtb	r1, r1
 80006ac:	b2f6      	uxtb	r6, r6
 80006ae:	d052      	beq.n	8000756 <sendPacket+0x1a6>
 80006b0:	f106 0c01 	add.w	ip, r6, #1
 80006b4:	f813 8006 	ldrb.w	r8, [r3, r6]
 80006b8:	eb04 0e06 	add.w	lr, r4, r6
 80006bc:	fa5f fc8c 	uxtb.w	ip, ip
 80006c0:	45d4      	cmp	ip, sl
 80006c2:	ea88 0101 	eor.w	r1, r8, r1
 80006c6:	f88e 8007 	strb.w	r8, [lr, #7]
 80006ca:	d244      	bcs.n	8000756 <sendPacket+0x1a6>
 80006cc:	f813 e00c 	ldrb.w	lr, [r3, ip]
 80006d0:	eb04 080c 	add.w	r8, r4, ip
 80006d4:	f106 0c02 	add.w	ip, r6, #2
 80006d8:	fa5f fc8c 	uxtb.w	ip, ip
 80006dc:	ea81 010e 	eor.w	r1, r1, lr
 80006e0:	45e2      	cmp	sl, ip
 80006e2:	b2c9      	uxtb	r1, r1
 80006e4:	f888 e007 	strb.w	lr, [r8, #7]
 80006e8:	d935      	bls.n	8000756 <sendPacket+0x1a6>
 80006ea:	f106 0e03 	add.w	lr, r6, #3
 80006ee:	f813 800c 	ldrb.w	r8, [r3, ip]
 80006f2:	fa5f fe8e 	uxtb.w	lr, lr
 80006f6:	44a4      	add	ip, r4
 80006f8:	45f2      	cmp	sl, lr
 80006fa:	ea81 0108 	eor.w	r1, r1, r8
 80006fe:	f88c 8007 	strb.w	r8, [ip, #7]
 8000702:	d928      	bls.n	8000756 <sendPacket+0x1a6>
 8000704:	f106 0c04 	add.w	ip, r6, #4
 8000708:	f813 800e 	ldrb.w	r8, [r3, lr]
 800070c:	fa5f fc8c 	uxtb.w	ip, ip
 8000710:	44a6      	add	lr, r4
 8000712:	45e2      	cmp	sl, ip
 8000714:	ea81 0108 	eor.w	r1, r1, r8
 8000718:	f88e 8007 	strb.w	r8, [lr, #7]
 800071c:	d91b      	bls.n	8000756 <sendPacket+0x1a6>
 800071e:	f106 0e05 	add.w	lr, r6, #5
 8000722:	f813 800c 	ldrb.w	r8, [r3, ip]
 8000726:	fa5f fe8e 	uxtb.w	lr, lr
 800072a:	44a4      	add	ip, r4
 800072c:	45f2      	cmp	sl, lr
 800072e:	ea81 0108 	eor.w	r1, r1, r8
 8000732:	f88c 8007 	strb.w	r8, [ip, #7]
 8000736:	d90e      	bls.n	8000756 <sendPacket+0x1a6>
 8000738:	3606      	adds	r6, #6
 800073a:	f813 c00e 	ldrb.w	ip, [r3, lr]
 800073e:	b2f6      	uxtb	r6, r6
 8000740:	44a6      	add	lr, r4
 8000742:	45b2      	cmp	sl, r6
 8000744:	ea81 010c 	eor.w	r1, r1, ip
 8000748:	f88e c007 	strb.w	ip, [lr, #7]
 800074c:	d903      	bls.n	8000756 <sendPacket+0x1a6>
 800074e:	5d9b      	ldrb	r3, [r3, r6]
 8000750:	4426      	add	r6, r4
 8000752:	4059      	eors	r1, r3
 8000754:	71f3      	strb	r3, [r6, #7]
 8000756:	43ce      	mvns	r6, r1
 8000758:	f021 0c01 	bic.w	ip, r1, #1
 800075c:	f026 0601 	bic.w	r6, r6, #1
 8000760:	465a      	mov	r2, fp
 8000762:	230a      	movs	r3, #10
 8000764:	71a6      	strb	r6, [r4, #6]
 8000766:	4621      	mov	r1, r4
 8000768:	f884 c005 	strb.w	ip, [r4, #5]
 800076c:	f001 fb48 	bl	8001e00 <HAL_UART_Transmit>
 8000770:	4818      	ldr	r0, [pc, #96]	; (80007d4 <sendPacket+0x224>)
 8000772:	f001 fdb3 	bl	80022dc <iprintf>
 8000776:	b165      	cbz	r5, 8000792 <sendPacket+0x1e2>
 8000778:	f8df 8060 	ldr.w	r8, [pc, #96]	; 80007dc <sendPacket+0x22c>
 800077c:	3c01      	subs	r4, #1
 800077e:	2600      	movs	r6, #0
 8000780:	3601      	adds	r6, #1
 8000782:	f814 1f01 	ldrb.w	r1, [r4, #1]!
 8000786:	4640      	mov	r0, r8
 8000788:	b2f6      	uxtb	r6, r6
 800078a:	f001 fda7 	bl	80022dc <iprintf>
 800078e:	42b5      	cmp	r5, r6
 8000790:	d8f6      	bhi.n	8000780 <sendPacket+0x1d0>
 8000792:	4811      	ldr	r0, [pc, #68]	; (80007d8 <sendPacket+0x228>)
 8000794:	f001 fda2 	bl	80022dc <iprintf>
 8000798:	3714      	adds	r7, #20
 800079a:	46bd      	mov	sp, r7
 800079c:	e8bd 8ff0 	ldmia.w	sp!, {r4, r5, r6, r7, r8, r9, sl, fp, pc}
 80007a0:	ea6f 0c01 	mvn.w	ip, r1
 80007a4:	f02c 0c01 	bic.w	ip, ip, #1
 80007a8:	f021 0601 	bic.w	r6, r1, #1
 80007ac:	465a      	mov	r2, fp
 80007ae:	230a      	movs	r3, #10
 80007b0:	4669      	mov	r1, sp
 80007b2:	f88d c006 	strb.w	ip, [sp, #6]
 80007b6:	f88d 6005 	strb.w	r6, [sp, #5]
 80007ba:	f001 fb21 	bl	8001e00 <HAL_UART_Transmit>
 80007be:	4805      	ldr	r0, [pc, #20]	; (80007d4 <sendPacket+0x224>)
 80007c0:	f001 fd8c 	bl	80022dc <iprintf>
 80007c4:	e7d8      	b.n	8000778 <sendPacket+0x1c8>
 80007c6:	603e      	str	r6, [r7, #0]
 80007c8:	e73f      	b.n	800064a <sendPacket+0x9a>
 80007ca:	2202      	movs	r2, #2
 80007cc:	603a      	str	r2, [r7, #0]
 80007ce:	e73c      	b.n	800064a <sendPacket+0x9a>
 80007d0:	2600      	movs	r6, #0
 80007d2:	e76d      	b.n	80006b0 <sendPacket+0x100>
 80007d4:	08002f6c 	.word	0x08002f6c
 80007d8:	08002f84 	.word	0x08002f84
 80007dc:	08002f7c 	.word	0x08002f7c

080007e0 <initializeServoBus>:
 80007e0:	b538      	push	{r3, r4, r5, lr}
 80007e2:	4605      	mov	r5, r0
 80007e4:	2070      	movs	r0, #112	; 0x70
 80007e6:	f001 fcc1 	bl	800216c <malloc>
 80007ea:	4604      	mov	r4, r0
 80007ec:	b300      	cbz	r0, 8000830 <initializeServoBus+0x50>
 80007ee:	4602      	mov	r2, r0
 80007f0:	2100      	movs	r1, #0
 80007f2:	f842 5b04 	str.w	r5, [r2], #4
 80007f6:	2000      	movs	r0, #0
 80007f8:	2500      	movs	r5, #0
 80007fa:	6065      	str	r5, [r4, #4]
 80007fc:	6055      	str	r5, [r2, #4]
 80007fe:	8115      	strh	r5, [r2, #8]
 8000800:	e9c4 0104 	strd	r0, r1, [r4, #16]
 8000804:	61a5      	str	r5, [r4, #24]
 8000806:	7725      	strb	r5, [r4, #28]
 8000808:	f8c4 501d 	str.w	r5, [r4, #29]
 800080c:	4629      	mov	r1, r5
 800080e:	f8c4 5021 	str.w	r5, [r4, #33]	; 0x21
 8000812:	f8a4 5025 	strh.w	r5, [r4, #37]	; 0x25
 8000816:	2233      	movs	r2, #51	; 0x33
 8000818:	f8c4 5027 	str.w	r5, [r4, #39]	; 0x27
 800081c:	f104 002b 	add.w	r0, r4, #43	; 0x2b
 8000820:	f001 fcac 	bl	800217c <memset>
 8000824:	4b03      	ldr	r3, [pc, #12]	; (8000834 <initializeServoBus+0x54>)
 8000826:	f884 505e 	strb.w	r5, [r4, #94]	; 0x5e
 800082a:	f884 505f 	strb.w	r5, [r4, #95]	; 0x5f
 800082e:	6623      	str	r3, [r4, #96]	; 0x60
 8000830:	4620      	mov	r0, r4
 8000832:	bd38      	pop	{r3, r4, r5, pc}
 8000834:	080005b1 	.word	0x080005b1

08000838 <initializeServo>:
 8000838:	b570      	push	{r4, r5, r6, lr}
 800083a:	4605      	mov	r5, r0
 800083c:	2010      	movs	r0, #16
 800083e:	460c      	mov	r4, r1
 8000840:	f001 fc94 	bl	800216c <malloc>
 8000844:	b148      	cbz	r0, 800085a <initializeServo+0x22>
 8000846:	4a05      	ldr	r2, [pc, #20]	; (800085c <initializeServo+0x24>)
 8000848:	4b05      	ldr	r3, [pc, #20]	; (8000860 <initializeServo+0x28>)
 800084a:	6005      	str	r5, [r0, #0]
 800084c:	e9c0 2302 	strd	r2, r3, [r0, #8]
 8000850:	2600      	movs	r6, #0
 8000852:	2101      	movs	r1, #1
 8000854:	7104      	strb	r4, [r0, #4]
 8000856:	7146      	strb	r6, [r0, #5]
 8000858:	7181      	strb	r1, [r0, #6]
 800085a:	bd70      	pop	{r4, r5, r6, pc}
 800085c:	2000008c 	.word	0x2000008c
 8000860:	200000a0 	.word	0x200000a0

08000864 <writeRam>:
 8000864:	68c3      	ldr	r3, [r0, #12]
 8000866:	b530      	push	{r4, r5, lr}
 8000868:	7019      	strb	r1, [r3, #0]
 800086a:	68c3      	ldr	r3, [r0, #12]
 800086c:	2401      	movs	r4, #1
 800086e:	705c      	strb	r4, [r3, #1]
 8000870:	68c3      	ldr	r3, [r0, #12]
 8000872:	b083      	sub	sp, #12
 8000874:	709a      	strb	r2, [r3, #2]
 8000876:	6804      	ldr	r4, [r0, #0]
 8000878:	68c3      	ldr	r3, [r0, #12]
 800087a:	7901      	ldrb	r1, [r0, #4]
 800087c:	2203      	movs	r2, #3
 800087e:	9200      	str	r2, [sp, #0]
 8000880:	6e25      	ldr	r5, [r4, #96]	; 0x60
 8000882:	4620      	mov	r0, r4
 8000884:	47a8      	blx	r5
 8000886:	b003      	add	sp, #12
 8000888:	bd30      	pop	{r4, r5, pc}
 800088a:	bf00      	nop

0800088c <writeEep>:
 800088c:	68c3      	ldr	r3, [r0, #12]
 800088e:	b530      	push	{r4, r5, lr}
 8000890:	7019      	strb	r1, [r3, #0]
 8000892:	68c3      	ldr	r3, [r0, #12]
 8000894:	2501      	movs	r5, #1
 8000896:	705d      	strb	r5, [r3, #1]
 8000898:	68c3      	ldr	r3, [r0, #12]
 800089a:	b083      	sub	sp, #12
 800089c:	709a      	strb	r2, [r3, #2]
 800089e:	6804      	ldr	r4, [r0, #0]
 80008a0:	68c3      	ldr	r3, [r0, #12]
 80008a2:	7901      	ldrb	r1, [r0, #4]
 80008a4:	2203      	movs	r2, #3
 80008a6:	9200      	str	r2, [sp, #0]
 80008a8:	4620      	mov	r0, r4
 80008aa:	462a      	mov	r2, r5
 80008ac:	6e25      	ldr	r5, [r4, #96]	; 0x60
 80008ae:	47a8      	blx	r5
 80008b0:	b003      	add	sp, #12
 80008b2:	bd30      	pop	{r4, r5, pc}

080008b4 <MX_DMA_Init>:
 80008b4:	b500      	push	{lr}
 80008b6:	b083      	sub	sp, #12
 80008b8:	2200      	movs	r2, #0
 80008ba:	4b0a      	ldr	r3, [pc, #40]	; (80008e4 <MX_DMA_Init+0x30>)
 80008bc:	9201      	str	r2, [sp, #4]
 80008be:	6b19      	ldr	r1, [r3, #48]	; 0x30
 80008c0:	f441 1100 	orr.w	r1, r1, #2097152	; 0x200000
 80008c4:	6319      	str	r1, [r3, #48]	; 0x30
 80008c6:	6b1b      	ldr	r3, [r3, #48]	; 0x30
 80008c8:	f403 1300 	and.w	r3, r3, #2097152	; 0x200000
 80008cc:	9301      	str	r3, [sp, #4]
 80008ce:	4611      	mov	r1, r2
 80008d0:	200b      	movs	r0, #11
 80008d2:	9b01      	ldr	r3, [sp, #4]
 80008d4:	f000 fb1a 	bl	8000f0c <HAL_NVIC_SetPriority>
 80008d8:	200b      	movs	r0, #11
 80008da:	b003      	add	sp, #12
 80008dc:	f85d eb04 	ldr.w	lr, [sp], #4
 80008e0:	f000 bb4a 	b.w	8000f78 <HAL_NVIC_EnableIRQ>
 80008e4:	40023800 	.word	0x40023800

080008e8 <MX_GPIO_Init>:
 80008e8:	b530      	push	{r4, r5, lr}
 80008ea:	2400      	movs	r4, #0
 80008ec:	b089      	sub	sp, #36	; 0x24
 80008ee:	e9cd 4403 	strd	r4, r4, [sp, #12]
 80008f2:	e9cd 4405 	strd	r4, r4, [sp, #20]
 80008f6:	4b22      	ldr	r3, [pc, #136]	; (8000980 <MX_GPIO_Init+0x98>)
 80008f8:	9400      	str	r4, [sp, #0]
 80008fa:	9407      	str	r4, [sp, #28]
 80008fc:	6b1a      	ldr	r2, [r3, #48]	; 0x30
 80008fe:	4d21      	ldr	r5, [pc, #132]	; (8000984 <MX_GPIO_Init+0x9c>)
 8000900:	f042 0204 	orr.w	r2, r2, #4
 8000904:	631a      	str	r2, [r3, #48]	; 0x30
 8000906:	6b1a      	ldr	r2, [r3, #48]	; 0x30
 8000908:	f002 0204 	and.w	r2, r2, #4
 800090c:	9200      	str	r2, [sp, #0]
 800090e:	9a00      	ldr	r2, [sp, #0]
 8000910:	9401      	str	r4, [sp, #4]
 8000912:	6b1a      	ldr	r2, [r3, #48]	; 0x30
 8000914:	f042 0201 	orr.w	r2, r2, #1
 8000918:	631a      	str	r2, [r3, #48]	; 0x30
 800091a:	6b1a      	ldr	r2, [r3, #48]	; 0x30
 800091c:	f002 0201 	and.w	r2, r2, #1
 8000920:	9201      	str	r2, [sp, #4]
 8000922:	9a01      	ldr	r2, [sp, #4]
 8000924:	9402      	str	r4, [sp, #8]
 8000926:	6b1a      	ldr	r2, [r3, #48]	; 0x30
 8000928:	f042 0208 	orr.w	r2, r2, #8
 800092c:	631a      	str	r2, [r3, #48]	; 0x30
 800092e:	6b1b      	ldr	r3, [r3, #48]	; 0x30
 8000930:	f003 0308 	and.w	r3, r3, #8
 8000934:	9302      	str	r3, [sp, #8]
 8000936:	4622      	mov	r2, r4
 8000938:	4628      	mov	r0, r5
 800093a:	2120      	movs	r1, #32
 800093c:	9b02      	ldr	r3, [sp, #8]
 800093e:	f000 fdd7 	bl	80014f0 <HAL_GPIO_WritePin>
 8000942:	4b11      	ldr	r3, [pc, #68]	; (8000988 <MX_GPIO_Init+0xa0>)
 8000944:	4811      	ldr	r0, [pc, #68]	; (800098c <MX_GPIO_Init+0xa4>)
 8000946:	9405      	str	r4, [sp, #20]
 8000948:	a903      	add	r1, sp, #12
 800094a:	f44f 5200 	mov.w	r2, #8192	; 0x2000
 800094e:	e9cd 2303 	strd	r2, r3, [sp, #12]
 8000952:	f000 fcbb 	bl	80012cc <HAL_GPIO_Init>
 8000956:	2301      	movs	r3, #1
 8000958:	a903      	add	r1, sp, #12
 800095a:	4628      	mov	r0, r5
 800095c:	2202      	movs	r2, #2
 800095e:	2520      	movs	r5, #32
 8000960:	e9cd 3205 	strd	r3, r2, [sp, #20]
 8000964:	e9cd 5303 	strd	r5, r3, [sp, #12]
 8000968:	f000 fcb0 	bl	80012cc <HAL_GPIO_Init>
 800096c:	4622      	mov	r2, r4
 800096e:	4621      	mov	r1, r4
 8000970:	2028      	movs	r0, #40	; 0x28
 8000972:	f000 facb 	bl	8000f0c <HAL_NVIC_SetPriority>
 8000976:	2028      	movs	r0, #40	; 0x28
 8000978:	f000 fafe 	bl	8000f78 <HAL_NVIC_EnableIRQ>
 800097c:	b009      	add	sp, #36	; 0x24
 800097e:	bd30      	pop	{r4, r5, pc}
 8000980:	40023800 	.word	0x40023800
 8000984:	40020000 	.word	0x40020000
 8000988:	10210000 	.word	0x10210000
 800098c:	40020800 	.word	0x40020800

08000990 <SystemClock_Config>:
 8000990:	b530      	push	{r4, r5, lr}
 8000992:	b095      	sub	sp, #84	; 0x54
 8000994:	2400      	movs	r4, #0
 8000996:	2230      	movs	r2, #48	; 0x30
 8000998:	2100      	movs	r1, #0
 800099a:	a808      	add	r0, sp, #32
 800099c:	f001 fbee 	bl	800217c <memset>
 80009a0:	e9cd 4402 	strd	r4, r4, [sp, #8]
 80009a4:	e9cd 4404 	strd	r4, r4, [sp, #16]
 80009a8:	4b17      	ldr	r3, [pc, #92]	; (8000a08 <SystemClock_Config+0x78>)
 80009aa:	9400      	str	r4, [sp, #0]
 80009ac:	9406      	str	r4, [sp, #24]
 80009ae:	6c19      	ldr	r1, [r3, #64]	; 0x40
 80009b0:	4a16      	ldr	r2, [pc, #88]	; (8000a0c <SystemClock_Config+0x7c>)
 80009b2:	f041 5180 	orr.w	r1, r1, #268435456	; 0x10000000
 80009b6:	6419      	str	r1, [r3, #64]	; 0x40
 80009b8:	6c1b      	ldr	r3, [r3, #64]	; 0x40
 80009ba:	f003 5380 	and.w	r3, r3, #268435456	; 0x10000000
 80009be:	9300      	str	r3, [sp, #0]
 80009c0:	9b00      	ldr	r3, [sp, #0]
 80009c2:	9401      	str	r4, [sp, #4]
 80009c4:	6813      	ldr	r3, [r2, #0]
 80009c6:	f423 4340 	bic.w	r3, r3, #49152	; 0xc000
 80009ca:	f443 4380 	orr.w	r3, r3, #16384	; 0x4000
 80009ce:	6013      	str	r3, [r2, #0]
 80009d0:	6813      	ldr	r3, [r2, #0]
 80009d2:	940d      	str	r4, [sp, #52]	; 0x34
 80009d4:	f403 4340 	and.w	r3, r3, #49152	; 0xc000
 80009d8:	9301      	str	r3, [sp, #4]
 80009da:	2201      	movs	r2, #1
 80009dc:	2102      	movs	r1, #2
 80009de:	2310      	movs	r3, #16
 80009e0:	a807      	add	r0, sp, #28
 80009e2:	e9cd 230a 	strd	r2, r3, [sp, #40]	; 0x28
 80009e6:	9107      	str	r1, [sp, #28]
 80009e8:	9d01      	ldr	r5, [sp, #4]
 80009ea:	f000 feab 	bl	8001744 <HAL_RCC_OscConfig>
 80009ee:	230f      	movs	r3, #15
 80009f0:	a802      	add	r0, sp, #8
 80009f2:	4621      	mov	r1, r4
 80009f4:	e9cd 4403 	strd	r4, r4, [sp, #12]
 80009f8:	e9cd 4405 	strd	r4, r4, [sp, #20]
 80009fc:	9302      	str	r3, [sp, #8]
 80009fe:	f000 fd8f 	bl	8001520 <HAL_RCC_ClockConfig>
 8000a02:	b015      	add	sp, #84	; 0x54
 8000a04:	bd30      	pop	{r4, r5, pc}
 8000a06:	bf00      	nop
 8000a08:	40023800 	.word	0x40023800
 8000a0c:	40007000 	.word	0x40007000

08000a10 <main>:
 8000a10:	b5f8      	push	{r3, r4, r5, r6, r7, lr}
 8000a12:	f000 fa3d 	bl	8000e90 <HAL_Init>
 8000a16:	4f1a      	ldr	r7, [pc, #104]	; (8000a80 <main+0x70>)
 8000a18:	4b1a      	ldr	r3, [pc, #104]	; (8000a84 <main+0x74>)
 8000a1a:	4a1b      	ldr	r2, [pc, #108]	; (8000a88 <main+0x78>)
 8000a1c:	481b      	ldr	r0, [pc, #108]	; (8000a8c <main+0x7c>)
 8000a1e:	2500      	movs	r5, #0
 8000a20:	701d      	strb	r5, [r3, #0]
 8000a22:	7015      	strb	r5, [r2, #0]
 8000a24:	703d      	strb	r5, [r7, #0]
 8000a26:	f7ff fedb 	bl	80007e0 <initializeServoBus>
 8000a2a:	21fd      	movs	r1, #253	; 0xfd
 8000a2c:	4606      	mov	r6, r0
 8000a2e:	f7ff ff03 	bl	8000838 <initializeServo>
 8000a32:	21ca      	movs	r1, #202	; 0xca
 8000a34:	4604      	mov	r4, r0
 8000a36:	4630      	mov	r0, r6
 8000a38:	f7ff fefe 	bl	8000838 <initializeServo>
 8000a3c:	4606      	mov	r6, r0
 8000a3e:	f7ff ffa7 	bl	8000990 <SystemClock_Config>
 8000a42:	f7ff ff51 	bl	80008e8 <MX_GPIO_Init>
 8000a46:	f000 f8f3 	bl	8000c30 <MX_UART5_Init>
 8000a4a:	f000 f90d 	bl	8000c68 <MX_USART2_UART_Init>
 8000a4e:	f7ff ff31 	bl	80008b4 <MX_DMA_Init>
 8000a52:	783b      	ldrb	r3, [r7, #0]
 8000a54:	b903      	cbnz	r3, 8000a58 <main+0x48>
 8000a56:	e7fe      	b.n	8000a56 <main+0x46>
 8000a58:	2120      	movs	r1, #32
 8000a5a:	480d      	ldr	r0, [pc, #52]	; (8000a90 <main+0x80>)
 8000a5c:	f000 fd4c 	bl	80014f8 <HAL_GPIO_TogglePin>
 8000a60:	4620      	mov	r0, r4
 8000a62:	22ca      	movs	r2, #202	; 0xca
 8000a64:	2106      	movs	r1, #6
 8000a66:	f7ff ff11 	bl	800088c <writeEep>
 8000a6a:	4629      	mov	r1, r5
 8000a6c:	4620      	mov	r0, r4
 8000a6e:	22ca      	movs	r2, #202	; 0xca
 8000a70:	f7ff fef8 	bl	8000864 <writeRam>
 8000a74:	4630      	mov	r0, r6
 8000a76:	2222      	movs	r2, #34	; 0x22
 8000a78:	2104      	movs	r1, #4
 8000a7a:	f7ff ff07 	bl	800088c <writeEep>
 8000a7e:	e7ea      	b.n	8000a56 <main+0x46>
 8000a80:	200000d9 	.word	0x200000d9
 8000a84:	200000d8 	.word	0x200000d8
 8000a88:	200000da 	.word	0x200000da
 8000a8c:	200000dc 	.word	0x200000dc
 8000a90:	40020000 	.word	0x40020000

08000a94 <__io_putchar>:
 8000a94:	b500      	push	{lr}
 8000a96:	b083      	sub	sp, #12
 8000a98:	a902      	add	r1, sp, #8
 8000a9a:	f64f 73ff 	movw	r3, #65535	; 0xffff
 8000a9e:	f841 0d04 	str.w	r0, [r1, #-4]!
 8000aa2:	2201      	movs	r2, #1
 8000aa4:	4803      	ldr	r0, [pc, #12]	; (8000ab4 <__io_putchar+0x20>)
 8000aa6:	f001 f9ab 	bl	8001e00 <HAL_UART_Transmit>
 8000aaa:	9801      	ldr	r0, [sp, #4]
 8000aac:	b003      	add	sp, #12
 8000aae:	f85d fb04 	ldr.w	pc, [sp], #4
 8000ab2:	bf00      	nop
 8000ab4:	2000011c 	.word	0x2000011c

08000ab8 <HAL_GPIO_EXTI_Callback>:
 8000ab8:	4b01      	ldr	r3, [pc, #4]	; (8000ac0 <HAL_GPIO_EXTI_Callback+0x8>)
 8000aba:	2201      	movs	r2, #1
 8000abc:	701a      	strb	r2, [r3, #0]
 8000abe:	4770      	bx	lr
 8000ac0:	200000d9 	.word	0x200000d9

08000ac4 <HAL_UART_RxCpltCallback>:
 8000ac4:	4b01      	ldr	r3, [pc, #4]	; (8000acc <HAL_UART_RxCpltCallback+0x8>)
 8000ac6:	2201      	movs	r2, #1
 8000ac8:	701a      	strb	r2, [r3, #0]
 8000aca:	4770      	bx	lr
 8000acc:	200000da 	.word	0x200000da

08000ad0 <Error_Handler>:
 8000ad0:	4770      	bx	lr
 8000ad2:	bf00      	nop

08000ad4 <HAL_MspInit>:
 8000ad4:	b082      	sub	sp, #8
 8000ad6:	4b0c      	ldr	r3, [pc, #48]	; (8000b08 <HAL_MspInit+0x34>)
 8000ad8:	2100      	movs	r1, #0
 8000ada:	9100      	str	r1, [sp, #0]
 8000adc:	6c5a      	ldr	r2, [r3, #68]	; 0x44
 8000ade:	f442 4280 	orr.w	r2, r2, #16384	; 0x4000
 8000ae2:	645a      	str	r2, [r3, #68]	; 0x44
 8000ae4:	6c5a      	ldr	r2, [r3, #68]	; 0x44
 8000ae6:	f402 4280 	and.w	r2, r2, #16384	; 0x4000
 8000aea:	9200      	str	r2, [sp, #0]
 8000aec:	9a00      	ldr	r2, [sp, #0]
 8000aee:	9101      	str	r1, [sp, #4]
 8000af0:	6c1a      	ldr	r2, [r3, #64]	; 0x40
 8000af2:	f042 5280 	orr.w	r2, r2, #268435456	; 0x10000000
 8000af6:	641a      	str	r2, [r3, #64]	; 0x40
 8000af8:	6c1b      	ldr	r3, [r3, #64]	; 0x40
 8000afa:	f003 5380 	and.w	r3, r3, #268435456	; 0x10000000
 8000afe:	9301      	str	r3, [sp, #4]
 8000b00:	9b01      	ldr	r3, [sp, #4]
 8000b02:	b002      	add	sp, #8
 8000b04:	4770      	bx	lr
 8000b06:	bf00      	nop
 8000b08:	40023800 	.word	0x40023800

08000b0c <NMI_Handler>:
 8000b0c:	4770      	bx	lr
 8000b0e:	bf00      	nop

08000b10 <HardFault_Handler>:
 8000b10:	e7fe      	b.n	8000b10 <HardFault_Handler>
 8000b12:	bf00      	nop

08000b14 <MemManage_Handler>:
 8000b14:	e7fe      	b.n	8000b14 <MemManage_Handler>
 8000b16:	bf00      	nop

08000b18 <BusFault_Handler>:
 8000b18:	e7fe      	b.n	8000b18 <BusFault_Handler>
 8000b1a:	bf00      	nop

08000b1c <UsageFault_Handler>:
 8000b1c:	e7fe      	b.n	8000b1c <UsageFault_Handler>
 8000b1e:	bf00      	nop

08000b20 <SVC_Handler>:
 8000b20:	4770      	bx	lr
 8000b22:	bf00      	nop

08000b24 <DebugMon_Handler>:
 8000b24:	4770      	bx	lr
 8000b26:	bf00      	nop

08000b28 <PendSV_Handler>:
 8000b28:	4770      	bx	lr
 8000b2a:	bf00      	nop

08000b2c <SysTick_Handler>:
 8000b2c:	f000 b9ca 	b.w	8000ec4 <HAL_IncTick>

08000b30 <DMA1_Stream0_IRQHandler>:
 8000b30:	4801      	ldr	r0, [pc, #4]	; (8000b38 <DMA1_Stream0_IRQHandler+0x8>)
 8000b32:	f000 baf5 	b.w	8001120 <HAL_DMA_IRQHandler>
 8000b36:	bf00      	nop
 8000b38:	2000015c 	.word	0x2000015c

08000b3c <EXTI15_10_IRQHandler>:
 8000b3c:	f44f 5000 	mov.w	r0, #8192	; 0x2000
 8000b40:	f000 bce2 	b.w	8001508 <HAL_GPIO_EXTI_IRQHandler>

08000b44 <UART5_IRQHandler>:
 8000b44:	4801      	ldr	r0, [pc, #4]	; (8000b4c <UART5_IRQHandler+0x8>)
 8000b46:	f001 ba1d 	b.w	8001f84 <HAL_UART_IRQHandler>
 8000b4a:	bf00      	nop
 8000b4c:	200000dc 	.word	0x200000dc

08000b50 <_read>:
 8000b50:	b570      	push	{r4, r5, r6, lr}
 8000b52:	1e16      	subs	r6, r2, #0
 8000b54:	dd07      	ble.n	8000b66 <_read+0x16>
 8000b56:	460c      	mov	r4, r1
 8000b58:	198d      	adds	r5, r1, r6
 8000b5a:	f3af 8000 	nop.w
 8000b5e:	f804 0b01 	strb.w	r0, [r4], #1
 8000b62:	42a5      	cmp	r5, r4
 8000b64:	d1f9      	bne.n	8000b5a <_read+0xa>
 8000b66:	4630      	mov	r0, r6
 8000b68:	bd70      	pop	{r4, r5, r6, pc}
 8000b6a:	bf00      	nop

08000b6c <_write>:
 8000b6c:	b570      	push	{r4, r5, r6, lr}
 8000b6e:	1e16      	subs	r6, r2, #0
 8000b70:	dd07      	ble.n	8000b82 <_write+0x16>
 8000b72:	460c      	mov	r4, r1
 8000b74:	198d      	adds	r5, r1, r6
 8000b76:	f814 0b01 	ldrb.w	r0, [r4], #1
 8000b7a:	f7ff ff8b 	bl	8000a94 <__io_putchar>
 8000b7e:	42ac      	cmp	r4, r5
 8000b80:	d1f9      	bne.n	8000b76 <_write+0xa>
 8000b82:	4630      	mov	r0, r6
 8000b84:	bd70      	pop	{r4, r5, r6, pc}
 8000b86:	bf00      	nop

08000b88 <_close>:
 8000b88:	f04f 30ff 	mov.w	r0, #4294967295
 8000b8c:	4770      	bx	lr
 8000b8e:	bf00      	nop

08000b90 <_fstat>:
 8000b90:	f44f 5300 	mov.w	r3, #8192	; 0x2000
 8000b94:	604b      	str	r3, [r1, #4]
 8000b96:	2000      	movs	r0, #0
 8000b98:	4770      	bx	lr
 8000b9a:	bf00      	nop

08000b9c <_isatty>:
 8000b9c:	2001      	movs	r0, #1
 8000b9e:	4770      	bx	lr

08000ba0 <_lseek>:
 8000ba0:	2000      	movs	r0, #0
 8000ba2:	4770      	bx	lr

08000ba4 <_sbrk>:
 8000ba4:	4a0c      	ldr	r2, [pc, #48]	; (8000bd8 <_sbrk+0x34>)
 8000ba6:	b508      	push	{r3, lr}
 8000ba8:	6813      	ldr	r3, [r2, #0]
 8000baa:	b133      	cbz	r3, 8000bba <_sbrk+0x16>
 8000bac:	4418      	add	r0, r3
 8000bae:	4669      	mov	r1, sp
 8000bb0:	4288      	cmp	r0, r1
 8000bb2:	d808      	bhi.n	8000bc6 <_sbrk+0x22>
 8000bb4:	6010      	str	r0, [r2, #0]
 8000bb6:	4618      	mov	r0, r3
 8000bb8:	bd08      	pop	{r3, pc}
 8000bba:	4b08      	ldr	r3, [pc, #32]	; (8000bdc <_sbrk+0x38>)
 8000bbc:	6013      	str	r3, [r2, #0]
 8000bbe:	4418      	add	r0, r3
 8000bc0:	4669      	mov	r1, sp
 8000bc2:	4288      	cmp	r0, r1
 8000bc4:	d9f6      	bls.n	8000bb4 <_sbrk+0x10>
 8000bc6:	f001 faa7 	bl	8002118 <__errno>
 8000bca:	230c      	movs	r3, #12
 8000bcc:	6003      	str	r3, [r0, #0]
 8000bce:	f04f 33ff 	mov.w	r3, #4294967295
 8000bd2:	4618      	mov	r0, r3
 8000bd4:	bd08      	pop	{r3, pc}
 8000bd6:	bf00      	nop
 8000bd8:	200000a8 	.word	0x200000a8
 8000bdc:	200001c8 	.word	0x200001c8

08000be0 <SystemInit>:
 8000be0:	4910      	ldr	r1, [pc, #64]	; (8000c24 <SystemInit+0x44>)
 8000be2:	4b11      	ldr	r3, [pc, #68]	; (8000c28 <SystemInit+0x48>)
 8000be4:	f8d1 2088 	ldr.w	r2, [r1, #136]	; 0x88
 8000be8:	f442 0270 	orr.w	r2, r2, #15728640	; 0xf00000
 8000bec:	b410      	push	{r4}
 8000bee:	f8c1 2088 	str.w	r2, [r1, #136]	; 0x88
 8000bf2:	681a      	ldr	r2, [r3, #0]
 8000bf4:	4c0d      	ldr	r4, [pc, #52]	; (8000c2c <SystemInit+0x4c>)
 8000bf6:	2000      	movs	r0, #0
 8000bf8:	f042 0201 	orr.w	r2, r2, #1
 8000bfc:	601a      	str	r2, [r3, #0]
 8000bfe:	6098      	str	r0, [r3, #8]
 8000c00:	681a      	ldr	r2, [r3, #0]
 8000c02:	f022 7284 	bic.w	r2, r2, #17301504	; 0x1080000
 8000c06:	f422 3280 	bic.w	r2, r2, #65536	; 0x10000
 8000c0a:	601a      	str	r2, [r3, #0]
 8000c0c:	605c      	str	r4, [r3, #4]
 8000c0e:	681a      	ldr	r2, [r3, #0]
 8000c10:	f04f 6400 	mov.w	r4, #134217728	; 0x8000000
 8000c14:	f422 2280 	bic.w	r2, r2, #262144	; 0x40000
 8000c18:	601a      	str	r2, [r3, #0]
 8000c1a:	60d8      	str	r0, [r3, #12]
 8000c1c:	608c      	str	r4, [r1, #8]
 8000c1e:	f85d 4b04 	ldr.w	r4, [sp], #4
 8000c22:	4770      	bx	lr
 8000c24:	e000ed00 	.word	0xe000ed00
 8000c28:	40023800 	.word	0x40023800
 8000c2c:	24003010 	.word	0x24003010

08000c30 <MX_UART5_Init>:
 8000c30:	4b0b      	ldr	r3, [pc, #44]	; (8000c60 <MX_UART5_Init+0x30>)
 8000c32:	4a0c      	ldr	r2, [pc, #48]	; (8000c64 <MX_UART5_Init+0x34>)
 8000c34:	b510      	push	{r4, lr}
 8000c36:	210c      	movs	r1, #12
 8000c38:	601a      	str	r2, [r3, #0]
 8000c3a:	f44f 34e1 	mov.w	r4, #115200	; 0x1c200
 8000c3e:	2200      	movs	r2, #0
 8000c40:	4618      	mov	r0, r3
 8000c42:	605c      	str	r4, [r3, #4]
 8000c44:	6159      	str	r1, [r3, #20]
 8000c46:	e9c3 2202 	strd	r2, r2, [r3, #8]
 8000c4a:	611a      	str	r2, [r3, #16]
 8000c4c:	e9c3 2206 	strd	r2, r2, [r3, #24]
 8000c50:	f000 ff4c 	bl	8001aec <HAL_UART_Init>
 8000c54:	b900      	cbnz	r0, 8000c58 <MX_UART5_Init+0x28>
 8000c56:	bd10      	pop	{r4, pc}
 8000c58:	e8bd 4010 	ldmia.w	sp!, {r4, lr}
 8000c5c:	f7ff bf38 	b.w	8000ad0 <Error_Handler>
 8000c60:	200000dc 	.word	0x200000dc
 8000c64:	40005000 	.word	0x40005000

08000c68 <MX_USART2_UART_Init>:
 8000c68:	4b0b      	ldr	r3, [pc, #44]	; (8000c98 <MX_USART2_UART_Init+0x30>)
 8000c6a:	4a0c      	ldr	r2, [pc, #48]	; (8000c9c <MX_USART2_UART_Init+0x34>)
 8000c6c:	b510      	push	{r4, lr}
 8000c6e:	210c      	movs	r1, #12
 8000c70:	601a      	str	r2, [r3, #0]
 8000c72:	f44f 34e1 	mov.w	r4, #115200	; 0x1c200
 8000c76:	2200      	movs	r2, #0
 8000c78:	4618      	mov	r0, r3
 8000c7a:	605c      	str	r4, [r3, #4]
 8000c7c:	6159      	str	r1, [r3, #20]
 8000c7e:	e9c3 2202 	strd	r2, r2, [r3, #8]
 8000c82:	611a      	str	r2, [r3, #16]
 8000c84:	e9c3 2206 	strd	r2, r2, [r3, #24]
 8000c88:	f000 ff30 	bl	8001aec <HAL_UART_Init>
 8000c8c:	b900      	cbnz	r0, 8000c90 <MX_USART2_UART_Init+0x28>
 8000c8e:	bd10      	pop	{r4, pc}
 8000c90:	e8bd 4010 	ldmia.w	sp!, {r4, lr}
 8000c94:	f7ff bf1c 	b.w	8000ad0 <Error_Handler>
 8000c98:	2000011c 	.word	0x2000011c
 8000c9c:	40004400 	.word	0x40004400

08000ca0 <HAL_UART_MspInit>:
 8000ca0:	e92d 47f0 	stmdb	sp!, {r4, r5, r6, r7, r8, r9, sl, lr}
 8000ca4:	6803      	ldr	r3, [r0, #0]
 8000ca6:	4a4b      	ldr	r2, [pc, #300]	; (8000dd4 <HAL_UART_MspInit+0x134>)
 8000ca8:	b08a      	sub	sp, #40	; 0x28
 8000caa:	2400      	movs	r4, #0
 8000cac:	4293      	cmp	r3, r2
 8000cae:	e9cd 4405 	strd	r4, r4, [sp, #20]
 8000cb2:	e9cd 4407 	strd	r4, r4, [sp, #28]
 8000cb6:	9409      	str	r4, [sp, #36]	; 0x24
 8000cb8:	d005      	beq.n	8000cc6 <HAL_UART_MspInit+0x26>
 8000cba:	4a47      	ldr	r2, [pc, #284]	; (8000dd8 <HAL_UART_MspInit+0x138>)
 8000cbc:	4293      	cmp	r3, r2
 8000cbe:	d063      	beq.n	8000d88 <HAL_UART_MspInit+0xe8>
 8000cc0:	b00a      	add	sp, #40	; 0x28
 8000cc2:	e8bd 87f0 	ldmia.w	sp!, {r4, r5, r6, r7, r8, r9, sl, pc}
 8000cc6:	4b45      	ldr	r3, [pc, #276]	; (8000ddc <HAL_UART_MspInit+0x13c>)
 8000cc8:	9400      	str	r4, [sp, #0]
 8000cca:	6c1a      	ldr	r2, [r3, #64]	; 0x40
 8000ccc:	4d44      	ldr	r5, [pc, #272]	; (8000de0 <HAL_UART_MspInit+0x140>)
 8000cce:	f442 1280 	orr.w	r2, r2, #1048576	; 0x100000
 8000cd2:	641a      	str	r2, [r3, #64]	; 0x40
 8000cd4:	6c1a      	ldr	r2, [r3, #64]	; 0x40
 8000cd6:	f402 1280 	and.w	r2, r2, #1048576	; 0x100000
 8000cda:	9200      	str	r2, [sp, #0]
 8000cdc:	9a00      	ldr	r2, [sp, #0]
 8000cde:	9401      	str	r4, [sp, #4]
 8000ce0:	6b1a      	ldr	r2, [r3, #48]	; 0x30
 8000ce2:	f042 0204 	orr.w	r2, r2, #4
 8000ce6:	631a      	str	r2, [r3, #48]	; 0x30
 8000ce8:	6b1a      	ldr	r2, [r3, #48]	; 0x30
 8000cea:	f002 0204 	and.w	r2, r2, #4
 8000cee:	9201      	str	r2, [sp, #4]
 8000cf0:	9a01      	ldr	r2, [sp, #4]
 8000cf2:	9402      	str	r4, [sp, #8]
 8000cf4:	6b1a      	ldr	r2, [r3, #48]	; 0x30
 8000cf6:	f042 0208 	orr.w	r2, r2, #8
 8000cfa:	631a      	str	r2, [r3, #48]	; 0x30
 8000cfc:	6b1b      	ldr	r3, [r3, #48]	; 0x30
 8000cfe:	f003 0308 	and.w	r3, r3, #8
 8000d02:	9302      	str	r3, [sp, #8]
 8000d04:	2708      	movs	r7, #8
 8000d06:	f44f 5380 	mov.w	r3, #4096	; 0x1000
 8000d0a:	f04f 0a02 	mov.w	sl, #2
 8000d0e:	f04f 0901 	mov.w	r9, #1
 8000d12:	f04f 0803 	mov.w	r8, #3
 8000d16:	a905      	add	r1, sp, #20
 8000d18:	4606      	mov	r6, r0
 8000d1a:	4832      	ldr	r0, [pc, #200]	; (8000de4 <HAL_UART_MspInit+0x144>)
 8000d1c:	9a02      	ldr	r2, [sp, #8]
 8000d1e:	9305      	str	r3, [sp, #20]
 8000d20:	e9cd 8708 	strd	r8, r7, [sp, #32]
 8000d24:	e9cd a906 	strd	sl, r9, [sp, #24]
 8000d28:	f000 fad0 	bl	80012cc <HAL_GPIO_Init>
 8000d2c:	2304      	movs	r3, #4
 8000d2e:	a905      	add	r1, sp, #20
 8000d30:	482d      	ldr	r0, [pc, #180]	; (8000de8 <HAL_UART_MspInit+0x148>)
 8000d32:	9305      	str	r3, [sp, #20]
 8000d34:	e9cd 8708 	strd	r8, r7, [sp, #32]
 8000d38:	4f2c      	ldr	r7, [pc, #176]	; (8000dec <HAL_UART_MspInit+0x14c>)
 8000d3a:	e9cd a906 	strd	sl, r9, [sp, #24]
 8000d3e:	f000 fac5 	bl	80012cc <HAL_GPIO_Init>
 8000d42:	f04f 6100 	mov.w	r1, #134217728	; 0x8000000
 8000d46:	f44f 6280 	mov.w	r2, #1024	; 0x400
 8000d4a:	f44f 7380 	mov.w	r3, #256	; 0x100
 8000d4e:	4628      	mov	r0, r5
 8000d50:	60ac      	str	r4, [r5, #8]
 8000d52:	60ec      	str	r4, [r5, #12]
 8000d54:	e9c5 4405 	strd	r4, r4, [r5, #20]
 8000d58:	e9c5 4408 	strd	r4, r4, [r5, #32]
 8000d5c:	e9c5 7100 	strd	r7, r1, [r5]
 8000d60:	612a      	str	r2, [r5, #16]
 8000d62:	61eb      	str	r3, [r5, #28]
 8000d64:	f000 f930 	bl	8000fc8 <HAL_DMA_Init>
 8000d68:	b108      	cbz	r0, 8000d6e <HAL_UART_MspInit+0xce>
 8000d6a:	f7ff feb1 	bl	8000ad0 <Error_Handler>
 8000d6e:	2200      	movs	r2, #0
 8000d70:	6375      	str	r5, [r6, #52]	; 0x34
 8000d72:	4611      	mov	r1, r2
 8000d74:	2035      	movs	r0, #53	; 0x35
 8000d76:	63ae      	str	r6, [r5, #56]	; 0x38
 8000d78:	f000 f8c8 	bl	8000f0c <HAL_NVIC_SetPriority>
 8000d7c:	2035      	movs	r0, #53	; 0x35
 8000d7e:	f000 f8fb 	bl	8000f78 <HAL_NVIC_EnableIRQ>
 8000d82:	b00a      	add	sp, #40	; 0x28
 8000d84:	e8bd 87f0 	ldmia.w	sp!, {r4, r5, r6, r7, r8, r9, sl, pc}
 8000d88:	4b14      	ldr	r3, [pc, #80]	; (8000ddc <HAL_UART_MspInit+0x13c>)
 8000d8a:	9403      	str	r4, [sp, #12]
 8000d8c:	6c1a      	ldr	r2, [r3, #64]	; 0x40
 8000d8e:	4818      	ldr	r0, [pc, #96]	; (8000df0 <HAL_UART_MspInit+0x150>)
 8000d90:	f442 3200 	orr.w	r2, r2, #131072	; 0x20000
 8000d94:	641a      	str	r2, [r3, #64]	; 0x40
 8000d96:	6c1a      	ldr	r2, [r3, #64]	; 0x40
 8000d98:	f402 3200 	and.w	r2, r2, #131072	; 0x20000
 8000d9c:	9203      	str	r2, [sp, #12]
 8000d9e:	9a03      	ldr	r2, [sp, #12]
 8000da0:	9404      	str	r4, [sp, #16]
 8000da2:	6b1a      	ldr	r2, [r3, #48]	; 0x30
 8000da4:	f042 0201 	orr.w	r2, r2, #1
 8000da8:	631a      	str	r2, [r3, #48]	; 0x30
 8000daa:	6b1b      	ldr	r3, [r3, #48]	; 0x30
 8000dac:	f003 0301 	and.w	r3, r3, #1
 8000db0:	9304      	str	r3, [sp, #16]
 8000db2:	230c      	movs	r3, #12
 8000db4:	2203      	movs	r2, #3
 8000db6:	9305      	str	r3, [sp, #20]
 8000db8:	a905      	add	r1, sp, #20
 8000dba:	2307      	movs	r3, #7
 8000dbc:	2502      	movs	r5, #2
 8000dbe:	2401      	movs	r4, #1
 8000dc0:	9e04      	ldr	r6, [sp, #16]
 8000dc2:	e9cd 5406 	strd	r5, r4, [sp, #24]
 8000dc6:	e9cd 2308 	strd	r2, r3, [sp, #32]
 8000dca:	f000 fa7f 	bl	80012cc <HAL_GPIO_Init>
 8000dce:	b00a      	add	sp, #40	; 0x28
 8000dd0:	e8bd 87f0 	ldmia.w	sp!, {r4, r5, r6, r7, r8, r9, sl, pc}
 8000dd4:	40005000 	.word	0x40005000
 8000dd8:	40004400 	.word	0x40004400
 8000ddc:	40023800 	.word	0x40023800
 8000de0:	2000015c 	.word	0x2000015c
 8000de4:	40020800 	.word	0x40020800
 8000de8:	40020c00 	.word	0x40020c00
 8000dec:	40026010 	.word	0x40026010
 8000df0:	40020000 	.word	0x40020000

08000df4 <Reset_Handler>:
 8000df4:	f8df d034 	ldr.w	sp, [pc, #52]	; 8000e2c <LoopFillZerobss+0x14>
 8000df8:	2100      	movs	r1, #0
 8000dfa:	e003      	b.n	8000e04 <LoopCopyDataInit>

08000dfc <CopyDataInit>:
 8000dfc:	4b0c      	ldr	r3, [pc, #48]	; (8000e30 <LoopFillZerobss+0x18>)
 8000dfe:	585b      	ldr	r3, [r3, r1]
 8000e00:	5043      	str	r3, [r0, r1]
 8000e02:	3104      	adds	r1, #4

08000e04 <LoopCopyDataInit>:
 8000e04:	480b      	ldr	r0, [pc, #44]	; (8000e34 <LoopFillZerobss+0x1c>)
 8000e06:	4b0c      	ldr	r3, [pc, #48]	; (8000e38 <LoopFillZerobss+0x20>)
 8000e08:	1842      	adds	r2, r0, r1
 8000e0a:	429a      	cmp	r2, r3
 8000e0c:	d3f6      	bcc.n	8000dfc <CopyDataInit>
 8000e0e:	4a0b      	ldr	r2, [pc, #44]	; (8000e3c <LoopFillZerobss+0x24>)
 8000e10:	e002      	b.n	8000e18 <LoopFillZerobss>

08000e12 <FillZerobss>:
 8000e12:	2300      	movs	r3, #0
 8000e14:	f842 3b04 	str.w	r3, [r2], #4

08000e18 <LoopFillZerobss>:
 8000e18:	4b09      	ldr	r3, [pc, #36]	; (8000e40 <LoopFillZerobss+0x28>)
 8000e1a:	429a      	cmp	r2, r3
 8000e1c:	d3f9      	bcc.n	8000e12 <FillZerobss>
 8000e1e:	f7ff fedf 	bl	8000be0 <SystemInit>
 8000e22:	f001 f97f 	bl	8002124 <__libc_init_array>
 8000e26:	f7ff fdf3 	bl	8000a10 <main>
 8000e2a:	4770      	bx	lr
 8000e2c:	20020000 	.word	0x20020000
 8000e30:	08003050 	.word	0x08003050
 8000e34:	20000000 	.word	0x20000000
 8000e38:	20000070 	.word	0x20000070
 8000e3c:	20000070 	.word	0x20000070
 8000e40:	200001c4 	.word	0x200001c4

08000e44 <ADC_IRQHandler>:
 8000e44:	e7fe      	b.n	8000e44 <ADC_IRQHandler>
	...

08000e48 <HAL_InitTick>:
 8000e48:	b538      	push	{r3, r4, r5, lr}
 8000e4a:	4a0e      	ldr	r2, [pc, #56]	; (8000e84 <HAL_InitTick+0x3c>)
 8000e4c:	4b0e      	ldr	r3, [pc, #56]	; (8000e88 <HAL_InitTick+0x40>)
 8000e4e:	7812      	ldrb	r2, [r2, #0]
 8000e50:	681b      	ldr	r3, [r3, #0]
 8000e52:	4605      	mov	r5, r0
 8000e54:	f44f 707a 	mov.w	r0, #1000	; 0x3e8
 8000e58:	fbb0 f0f2 	udiv	r0, r0, r2
 8000e5c:	fbb3 f0f0 	udiv	r0, r3, r0
 8000e60:	f000 f898 	bl	8000f94 <HAL_SYSTICK_Config>
 8000e64:	b908      	cbnz	r0, 8000e6a <HAL_InitTick+0x22>
 8000e66:	2d0f      	cmp	r5, #15
 8000e68:	d901      	bls.n	8000e6e <HAL_InitTick+0x26>
 8000e6a:	2001      	movs	r0, #1
 8000e6c:	bd38      	pop	{r3, r4, r5, pc}
 8000e6e:	4604      	mov	r4, r0
 8000e70:	4602      	mov	r2, r0
 8000e72:	4629      	mov	r1, r5
 8000e74:	f04f 30ff 	mov.w	r0, #4294967295
 8000e78:	f000 f848 	bl	8000f0c <HAL_NVIC_SetPriority>
 8000e7c:	4b03      	ldr	r3, [pc, #12]	; (8000e8c <HAL_InitTick+0x44>)
 8000e7e:	4620      	mov	r0, r4
 8000e80:	601d      	str	r5, [r3, #0]
 8000e82:	bd38      	pop	{r3, r4, r5, pc}
 8000e84:	20000004 	.word	0x20000004
 8000e88:	20000000 	.word	0x20000000
 8000e8c:	20000008 	.word	0x20000008

08000e90 <HAL_Init>:
 8000e90:	b508      	push	{r3, lr}
 8000e92:	4b0b      	ldr	r3, [pc, #44]	; (8000ec0 <HAL_Init+0x30>)
 8000e94:	681a      	ldr	r2, [r3, #0]
 8000e96:	f442 7200 	orr.w	r2, r2, #512	; 0x200
 8000e9a:	601a      	str	r2, [r3, #0]
 8000e9c:	681a      	ldr	r2, [r3, #0]
 8000e9e:	f442 6280 	orr.w	r2, r2, #1024	; 0x400
 8000ea2:	601a      	str	r2, [r3, #0]
 8000ea4:	681a      	ldr	r2, [r3, #0]
 8000ea6:	f442 7280 	orr.w	r2, r2, #256	; 0x100
 8000eaa:	601a      	str	r2, [r3, #0]
 8000eac:	2003      	movs	r0, #3
 8000eae:	f000 f81b 	bl	8000ee8 <HAL_NVIC_SetPriorityGrouping>
 8000eb2:	2000      	movs	r0, #0
 8000eb4:	f7ff ffc8 	bl	8000e48 <HAL_InitTick>
 8000eb8:	f7ff fe0c 	bl	8000ad4 <HAL_MspInit>
 8000ebc:	2000      	movs	r0, #0
 8000ebe:	bd08      	pop	{r3, pc}
 8000ec0:	40023c00 	.word	0x40023c00

08000ec4 <HAL_IncTick>:
 8000ec4:	4a03      	ldr	r2, [pc, #12]	; (8000ed4 <HAL_IncTick+0x10>)
 8000ec6:	4b04      	ldr	r3, [pc, #16]	; (8000ed8 <HAL_IncTick+0x14>)
 8000ec8:	6811      	ldr	r1, [r2, #0]
 8000eca:	781b      	ldrb	r3, [r3, #0]
 8000ecc:	440b      	add	r3, r1
 8000ece:	6013      	str	r3, [r2, #0]
 8000ed0:	4770      	bx	lr
 8000ed2:	bf00      	nop
 8000ed4:	200001bc 	.word	0x200001bc
 8000ed8:	20000004 	.word	0x20000004

08000edc <HAL_GetTick>:
 8000edc:	4b01      	ldr	r3, [pc, #4]	; (8000ee4 <HAL_GetTick+0x8>)
 8000ede:	6818      	ldr	r0, [r3, #0]
 8000ee0:	4770      	bx	lr
 8000ee2:	bf00      	nop
 8000ee4:	200001bc 	.word	0x200001bc

08000ee8 <HAL_NVIC_SetPriorityGrouping>:
 8000ee8:	4a07      	ldr	r2, [pc, #28]	; (8000f08 <HAL_NVIC_SetPriorityGrouping+0x20>)
 8000eea:	68d3      	ldr	r3, [r2, #12]
 8000eec:	f64f 01ff 	movw	r1, #63743	; 0xf8ff
 8000ef0:	400b      	ands	r3, r1
 8000ef2:	0200      	lsls	r0, r0, #8
 8000ef4:	f043 63bf 	orr.w	r3, r3, #100139008	; 0x5f80000
 8000ef8:	f400 60e0 	and.w	r0, r0, #1792	; 0x700
 8000efc:	f443 3300 	orr.w	r3, r3, #131072	; 0x20000
 8000f00:	4303      	orrs	r3, r0
 8000f02:	60d3      	str	r3, [r2, #12]
 8000f04:	4770      	bx	lr
 8000f06:	bf00      	nop
 8000f08:	e000ed00 	.word	0xe000ed00

08000f0c <HAL_NVIC_SetPriority>:
 8000f0c:	4b18      	ldr	r3, [pc, #96]	; (8000f70 <HAL_NVIC_SetPriority+0x64>)
 8000f0e:	68db      	ldr	r3, [r3, #12]
 8000f10:	f3c3 2302 	ubfx	r3, r3, #8, #3
 8000f14:	b430      	push	{r4, r5}
 8000f16:	f1c3 0507 	rsb	r5, r3, #7
 8000f1a:	2d04      	cmp	r5, #4
 8000f1c:	f103 0404 	add.w	r4, r3, #4
 8000f20:	bf28      	it	cs
 8000f22:	2504      	movcs	r5, #4
 8000f24:	2c06      	cmp	r4, #6
 8000f26:	d919      	bls.n	8000f5c <HAL_NVIC_SetPriority+0x50>
 8000f28:	3b03      	subs	r3, #3
 8000f2a:	f04f 34ff 	mov.w	r4, #4294967295
 8000f2e:	409c      	lsls	r4, r3
 8000f30:	ea22 0404 	bic.w	r4, r2, r4
 8000f34:	f04f 32ff 	mov.w	r2, #4294967295
 8000f38:	40aa      	lsls	r2, r5
 8000f3a:	ea21 0102 	bic.w	r1, r1, r2
 8000f3e:	fa01 f203 	lsl.w	r2, r1, r3
 8000f42:	4322      	orrs	r2, r4
 8000f44:	0112      	lsls	r2, r2, #4
 8000f46:	2800      	cmp	r0, #0
 8000f48:	b2d2      	uxtb	r2, r2
 8000f4a:	db0a      	blt.n	8000f62 <HAL_NVIC_SetPriority+0x56>
 8000f4c:	f100 4060 	add.w	r0, r0, #3758096384	; 0xe0000000
 8000f50:	f500 4061 	add.w	r0, r0, #57600	; 0xe100
 8000f54:	f880 2300 	strb.w	r2, [r0, #768]	; 0x300
 8000f58:	bc30      	pop	{r4, r5}
 8000f5a:	4770      	bx	lr
 8000f5c:	2400      	movs	r4, #0
 8000f5e:	4623      	mov	r3, r4
 8000f60:	e7e8      	b.n	8000f34 <HAL_NVIC_SetPriority+0x28>
 8000f62:	4b04      	ldr	r3, [pc, #16]	; (8000f74 <HAL_NVIC_SetPriority+0x68>)
 8000f64:	f000 000f 	and.w	r0, r0, #15
 8000f68:	4403      	add	r3, r0
 8000f6a:	761a      	strb	r2, [r3, #24]
 8000f6c:	bc30      	pop	{r4, r5}
 8000f6e:	4770      	bx	lr
 8000f70:	e000ed00 	.word	0xe000ed00
 8000f74:	e000ecfc 	.word	0xe000ecfc

08000f78 <HAL_NVIC_EnableIRQ>:
 8000f78:	2800      	cmp	r0, #0
 8000f7a:	db07      	blt.n	8000f8c <HAL_NVIC_EnableIRQ+0x14>
 8000f7c:	f000 011f 	and.w	r1, r0, #31
 8000f80:	2301      	movs	r3, #1
 8000f82:	0940      	lsrs	r0, r0, #5
 8000f84:	4a02      	ldr	r2, [pc, #8]	; (8000f90 <HAL_NVIC_EnableIRQ+0x18>)
 8000f86:	408b      	lsls	r3, r1
 8000f88:	f842 3020 	str.w	r3, [r2, r0, lsl #2]
 8000f8c:	4770      	bx	lr
 8000f8e:	bf00      	nop
 8000f90:	e000e100 	.word	0xe000e100

08000f94 <HAL_SYSTICK_Config>:
 8000f94:	3801      	subs	r0, #1
 8000f96:	f1b0 7f80 	cmp.w	r0, #16777216	; 0x1000000
 8000f9a:	d20e      	bcs.n	8000fba <HAL_SYSTICK_Config+0x26>
 8000f9c:	4b08      	ldr	r3, [pc, #32]	; (8000fc0 <HAL_SYSTICK_Config+0x2c>)
 8000f9e:	b410      	push	{r4}
 8000fa0:	4c08      	ldr	r4, [pc, #32]	; (8000fc4 <HAL_SYSTICK_Config+0x30>)
 8000fa2:	6058      	str	r0, [r3, #4]
 8000fa4:	20f0      	movs	r0, #240	; 0xf0
 8000fa6:	f884 0023 	strb.w	r0, [r4, #35]	; 0x23
 8000faa:	2200      	movs	r2, #0
 8000fac:	2107      	movs	r1, #7
 8000fae:	4610      	mov	r0, r2
 8000fb0:	609a      	str	r2, [r3, #8]
 8000fb2:	6019      	str	r1, [r3, #0]
 8000fb4:	f85d 4b04 	ldr.w	r4, [sp], #4
 8000fb8:	4770      	bx	lr
 8000fba:	2001      	movs	r0, #1
 8000fbc:	4770      	bx	lr
 8000fbe:	bf00      	nop
 8000fc0:	e000e010 	.word	0xe000e010
 8000fc4:	e000ed00 	.word	0xe000ed00

08000fc8 <HAL_DMA_Init>:
 8000fc8:	b5f8      	push	{r3, r4, r5, r6, r7, lr}
 8000fca:	4604      	mov	r4, r0
 8000fcc:	f7ff ff86 	bl	8000edc <HAL_GetTick>
 8000fd0:	2c00      	cmp	r4, #0
 8000fd2:	d054      	beq.n	800107e <HAL_DMA_Init+0xb6>
 8000fd4:	2202      	movs	r2, #2
 8000fd6:	6823      	ldr	r3, [r4, #0]
 8000fd8:	f884 2035 	strb.w	r2, [r4, #53]	; 0x35
 8000fdc:	681a      	ldr	r2, [r3, #0]
 8000fde:	2100      	movs	r1, #0
 8000fe0:	f022 0201 	bic.w	r2, r2, #1
 8000fe4:	f884 1034 	strb.w	r1, [r4, #52]	; 0x34
 8000fe8:	4605      	mov	r5, r0
 8000fea:	601a      	str	r2, [r3, #0]
 8000fec:	e005      	b.n	8000ffa <HAL_DMA_Init+0x32>
 8000fee:	f7ff ff75 	bl	8000edc <HAL_GetTick>
 8000ff2:	1b40      	subs	r0, r0, r5
 8000ff4:	2805      	cmp	r0, #5
 8000ff6:	d83b      	bhi.n	8001070 <HAL_DMA_Init+0xa8>
 8000ff8:	6823      	ldr	r3, [r4, #0]
 8000ffa:	681a      	ldr	r2, [r3, #0]
 8000ffc:	07d1      	lsls	r1, r2, #31
 8000ffe:	d4f6      	bmi.n	8000fee <HAL_DMA_Init+0x26>
 8001000:	e9d4 2601 	ldrd	r2, r6, [r4, #4]
 8001004:	e9d4 5103 	ldrd	r5, r1, [r4, #12]
 8001008:	4332      	orrs	r2, r6
 800100a:	6960      	ldr	r0, [r4, #20]
 800100c:	681f      	ldr	r7, [r3, #0]
 800100e:	432a      	orrs	r2, r5
 8001010:	e9d4 6506 	ldrd	r6, r5, [r4, #24]
 8001014:	430a      	orrs	r2, r1
 8001016:	4302      	orrs	r2, r0
 8001018:	6a21      	ldr	r1, [r4, #32]
 800101a:	4835      	ldr	r0, [pc, #212]	; (80010f0 <HAL_DMA_Init+0x128>)
 800101c:	4332      	orrs	r2, r6
 800101e:	432a      	orrs	r2, r5
 8001020:	430a      	orrs	r2, r1
 8001022:	6a61      	ldr	r1, [r4, #36]	; 0x24
 8001024:	4038      	ands	r0, r7
 8001026:	2904      	cmp	r1, #4
 8001028:	ea42 0200 	orr.w	r2, r2, r0
 800102c:	d029      	beq.n	8001082 <HAL_DMA_Init+0xba>
 800102e:	601a      	str	r2, [r3, #0]
 8001030:	695a      	ldr	r2, [r3, #20]
 8001032:	f022 0207 	bic.w	r2, r2, #7
 8001036:	4311      	orrs	r1, r2
 8001038:	b2da      	uxtb	r2, r3
 800103a:	482e      	ldr	r0, [pc, #184]	; (80010f4 <HAL_DMA_Init+0x12c>)
 800103c:	6159      	str	r1, [r3, #20]
 800103e:	3a10      	subs	r2, #16
 8001040:	fba0 1202 	umull	r1, r2, r0, r2
 8001044:	0912      	lsrs	r2, r2, #4
 8001046:	492c      	ldr	r1, [pc, #176]	; (80010f8 <HAL_DMA_Init+0x130>)
 8001048:	f423 737f 	bic.w	r3, r3, #1020	; 0x3fc
 800104c:	5c89      	ldrb	r1, [r1, r2]
 800104e:	65e1      	str	r1, [r4, #92]	; 0x5c
 8001050:	f023 0303 	bic.w	r3, r3, #3
 8001054:	2a03      	cmp	r2, #3
 8001056:	bf88      	it	hi
 8001058:	3304      	addhi	r3, #4
 800105a:	223f      	movs	r2, #63	; 0x3f
 800105c:	408a      	lsls	r2, r1
 800105e:	2501      	movs	r5, #1
 8001060:	2100      	movs	r1, #0
 8001062:	65a3      	str	r3, [r4, #88]	; 0x58
 8001064:	4608      	mov	r0, r1
 8001066:	609a      	str	r2, [r3, #8]
 8001068:	6561      	str	r1, [r4, #84]	; 0x54
 800106a:	f884 5035 	strb.w	r5, [r4, #53]	; 0x35
 800106e:	bdf8      	pop	{r3, r4, r5, r6, r7, pc}
 8001070:	2303      	movs	r3, #3
 8001072:	2220      	movs	r2, #32
 8001074:	6562      	str	r2, [r4, #84]	; 0x54
 8001076:	4618      	mov	r0, r3
 8001078:	f884 3035 	strb.w	r3, [r4, #53]	; 0x35
 800107c:	bdf8      	pop	{r3, r4, r5, r6, r7, pc}
 800107e:	2001      	movs	r0, #1
 8001080:	bdf8      	pop	{r3, r4, r5, r6, r7, pc}
 8001082:	e9d4 010b 	ldrd	r0, r1, [r4, #44]	; 0x2c
 8001086:	4301      	orrs	r1, r0
 8001088:	430a      	orrs	r2, r1
 800108a:	6aa5      	ldr	r5, [r4, #40]	; 0x28
 800108c:	601a      	str	r2, [r3, #0]
 800108e:	695a      	ldr	r2, [r3, #20]
 8001090:	f045 0104 	orr.w	r1, r5, #4
 8001094:	f022 0207 	bic.w	r2, r2, #7
 8001098:	4311      	orrs	r1, r2
 800109a:	2800      	cmp	r0, #0
 800109c:	d0cc      	beq.n	8001038 <HAL_DMA_Init+0x70>
 800109e:	b17e      	cbz	r6, 80010c0 <HAL_DMA_Init+0xf8>
 80010a0:	f5b6 5f00 	cmp.w	r6, #8192	; 0x2000
 80010a4:	d016      	beq.n	80010d4 <HAL_DMA_Init+0x10c>
 80010a6:	2d02      	cmp	r5, #2
 80010a8:	d903      	bls.n	80010b2 <HAL_DMA_Init+0xea>
 80010aa:	2d03      	cmp	r5, #3
 80010ac:	d1c4      	bne.n	8001038 <HAL_DMA_Init+0x70>
 80010ae:	01c2      	lsls	r2, r0, #7
 80010b0:	d5c2      	bpl.n	8001038 <HAL_DMA_Init+0x70>
 80010b2:	2301      	movs	r3, #1
 80010b4:	2240      	movs	r2, #64	; 0x40
 80010b6:	6562      	str	r2, [r4, #84]	; 0x54
 80010b8:	4618      	mov	r0, r3
 80010ba:	f884 3035 	strb.w	r3, [r4, #53]	; 0x35
 80010be:	bdf8      	pop	{r3, r4, r5, r6, r7, pc}
 80010c0:	2d01      	cmp	r5, #1
 80010c2:	d003      	beq.n	80010cc <HAL_DMA_Init+0x104>
 80010c4:	d3f3      	bcc.n	80010ae <HAL_DMA_Init+0xe6>
 80010c6:	2d02      	cmp	r5, #2
 80010c8:	d1b6      	bne.n	8001038 <HAL_DMA_Init+0x70>
 80010ca:	e7f0      	b.n	80010ae <HAL_DMA_Init+0xe6>
 80010cc:	f1b0 7fc0 	cmp.w	r0, #25165824	; 0x1800000
 80010d0:	d1b2      	bne.n	8001038 <HAL_DMA_Init+0x70>
 80010d2:	e7ee      	b.n	80010b2 <HAL_DMA_Init+0xea>
 80010d4:	2d03      	cmp	r5, #3
 80010d6:	d8af      	bhi.n	8001038 <HAL_DMA_Init+0x70>
 80010d8:	a201      	add	r2, pc, #4	; (adr r2, 80010e0 <HAL_DMA_Init+0x118>)
 80010da:	f852 f025 	ldr.w	pc, [r2, r5, lsl #2]
 80010de:	bf00      	nop
 80010e0:	080010b3 	.word	0x080010b3
 80010e4:	080010af 	.word	0x080010af
 80010e8:	080010b3 	.word	0x080010b3
 80010ec:	080010cd 	.word	0x080010cd
 80010f0:	f010803f 	.word	0xf010803f
 80010f4:	aaaaaaab 	.word	0xaaaaaaab
 80010f8:	08002fa0 	.word	0x08002fa0

080010fc <HAL_DMA_Abort_IT>:
 80010fc:	f890 3035 	ldrb.w	r3, [r0, #53]	; 0x35
 8001100:	2b02      	cmp	r3, #2
 8001102:	d003      	beq.n	800110c <HAL_DMA_Abort_IT+0x10>
 8001104:	2380      	movs	r3, #128	; 0x80
 8001106:	6543      	str	r3, [r0, #84]	; 0x54
 8001108:	2001      	movs	r0, #1
 800110a:	4770      	bx	lr
 800110c:	6802      	ldr	r2, [r0, #0]
 800110e:	2305      	movs	r3, #5
 8001110:	f880 3035 	strb.w	r3, [r0, #53]	; 0x35
 8001114:	6813      	ldr	r3, [r2, #0]
 8001116:	f023 0301 	bic.w	r3, r3, #1
 800111a:	6013      	str	r3, [r2, #0]
 800111c:	2000      	movs	r0, #0
 800111e:	4770      	bx	lr

08001120 <HAL_DMA_IRQHandler>:
 8001120:	b5f0      	push	{r4, r5, r6, r7, lr}
 8001122:	b083      	sub	sp, #12
 8001124:	2300      	movs	r3, #0
 8001126:	6d87      	ldr	r7, [r0, #88]	; 0x58
 8001128:	9301      	str	r3, [sp, #4]
 800112a:	6dc3      	ldr	r3, [r0, #92]	; 0x5c
 800112c:	683d      	ldr	r5, [r7, #0]
 800112e:	4965      	ldr	r1, [pc, #404]	; (80012c4 <HAL_DMA_IRQHandler+0x1a4>)
 8001130:	2208      	movs	r2, #8
 8001132:	409a      	lsls	r2, r3
 8001134:	422a      	tst	r2, r5
 8001136:	4604      	mov	r4, r0
 8001138:	680e      	ldr	r6, [r1, #0]
 800113a:	d003      	beq.n	8001144 <HAL_DMA_IRQHandler+0x24>
 800113c:	6801      	ldr	r1, [r0, #0]
 800113e:	6808      	ldr	r0, [r1, #0]
 8001140:	0740      	lsls	r0, r0, #29
 8001142:	d459      	bmi.n	80011f8 <HAL_DMA_IRQHandler+0xd8>
 8001144:	2201      	movs	r2, #1
 8001146:	409a      	lsls	r2, r3
 8001148:	422a      	tst	r2, r5
 800114a:	d003      	beq.n	8001154 <HAL_DMA_IRQHandler+0x34>
 800114c:	6821      	ldr	r1, [r4, #0]
 800114e:	6949      	ldr	r1, [r1, #20]
 8001150:	0608      	lsls	r0, r1, #24
 8001152:	d474      	bmi.n	800123e <HAL_DMA_IRQHandler+0x11e>
 8001154:	2204      	movs	r2, #4
 8001156:	409a      	lsls	r2, r3
 8001158:	422a      	tst	r2, r5
 800115a:	d003      	beq.n	8001164 <HAL_DMA_IRQHandler+0x44>
 800115c:	6821      	ldr	r1, [r4, #0]
 800115e:	6809      	ldr	r1, [r1, #0]
 8001160:	0789      	lsls	r1, r1, #30
 8001162:	d466      	bmi.n	8001232 <HAL_DMA_IRQHandler+0x112>
 8001164:	2210      	movs	r2, #16
 8001166:	409a      	lsls	r2, r3
 8001168:	422a      	tst	r2, r5
 800116a:	d003      	beq.n	8001174 <HAL_DMA_IRQHandler+0x54>
 800116c:	6821      	ldr	r1, [r4, #0]
 800116e:	6808      	ldr	r0, [r1, #0]
 8001170:	0700      	lsls	r0, r0, #28
 8001172:	d44b      	bmi.n	800120c <HAL_DMA_IRQHandler+0xec>
 8001174:	2220      	movs	r2, #32
 8001176:	409a      	lsls	r2, r3
 8001178:	422a      	tst	r2, r5
 800117a:	d014      	beq.n	80011a6 <HAL_DMA_IRQHandler+0x86>
 800117c:	6821      	ldr	r1, [r4, #0]
 800117e:	6808      	ldr	r0, [r1, #0]
 8001180:	06c0      	lsls	r0, r0, #27
 8001182:	d510      	bpl.n	80011a6 <HAL_DMA_IRQHandler+0x86>
 8001184:	60ba      	str	r2, [r7, #8]
 8001186:	f894 2035 	ldrb.w	r2, [r4, #53]	; 0x35
 800118a:	2a05      	cmp	r2, #5
 800118c:	d063      	beq.n	8001256 <HAL_DMA_IRQHandler+0x136>
 800118e:	680b      	ldr	r3, [r1, #0]
 8001190:	f413 2f80 	tst.w	r3, #262144	; 0x40000
 8001194:	680b      	ldr	r3, [r1, #0]
 8001196:	d07e      	beq.n	8001296 <HAL_DMA_IRQHandler+0x176>
 8001198:	0319      	lsls	r1, r3, #12
 800119a:	f140 8089 	bpl.w	80012b0 <HAL_DMA_IRQHandler+0x190>
 800119e:	6be3      	ldr	r3, [r4, #60]	; 0x3c
 80011a0:	b10b      	cbz	r3, 80011a6 <HAL_DMA_IRQHandler+0x86>
 80011a2:	4620      	mov	r0, r4
 80011a4:	4798      	blx	r3
 80011a6:	6d63      	ldr	r3, [r4, #84]	; 0x54
 80011a8:	b323      	cbz	r3, 80011f4 <HAL_DMA_IRQHandler+0xd4>
 80011aa:	6d63      	ldr	r3, [r4, #84]	; 0x54
 80011ac:	07da      	lsls	r2, r3, #31
 80011ae:	d51a      	bpl.n	80011e6 <HAL_DMA_IRQHandler+0xc6>
 80011b0:	2305      	movs	r3, #5
 80011b2:	6822      	ldr	r2, [r4, #0]
 80011b4:	f884 3035 	strb.w	r3, [r4, #53]	; 0x35
 80011b8:	6813      	ldr	r3, [r2, #0]
 80011ba:	4943      	ldr	r1, [pc, #268]	; (80012c8 <HAL_DMA_IRQHandler+0x1a8>)
 80011bc:	f023 0301 	bic.w	r3, r3, #1
 80011c0:	fba1 1606 	umull	r1, r6, r1, r6
 80011c4:	6013      	str	r3, [r2, #0]
 80011c6:	0ab6      	lsrs	r6, r6, #10
 80011c8:	e002      	b.n	80011d0 <HAL_DMA_IRQHandler+0xb0>
 80011ca:	6813      	ldr	r3, [r2, #0]
 80011cc:	07db      	lsls	r3, r3, #31
 80011ce:	d504      	bpl.n	80011da <HAL_DMA_IRQHandler+0xba>
 80011d0:	9b01      	ldr	r3, [sp, #4]
 80011d2:	3301      	adds	r3, #1
 80011d4:	42b3      	cmp	r3, r6
 80011d6:	9301      	str	r3, [sp, #4]
 80011d8:	d9f7      	bls.n	80011ca <HAL_DMA_IRQHandler+0xaa>
 80011da:	2200      	movs	r2, #0
 80011dc:	2301      	movs	r3, #1
 80011de:	f884 2034 	strb.w	r2, [r4, #52]	; 0x34
 80011e2:	f884 3035 	strb.w	r3, [r4, #53]	; 0x35
 80011e6:	6ce3      	ldr	r3, [r4, #76]	; 0x4c
 80011e8:	b123      	cbz	r3, 80011f4 <HAL_DMA_IRQHandler+0xd4>
 80011ea:	4620      	mov	r0, r4
 80011ec:	b003      	add	sp, #12
 80011ee:	e8bd 40f0 	ldmia.w	sp!, {r4, r5, r6, r7, lr}
 80011f2:	4718      	bx	r3
 80011f4:	b003      	add	sp, #12
 80011f6:	bdf0      	pop	{r4, r5, r6, r7, pc}
 80011f8:	6808      	ldr	r0, [r1, #0]
 80011fa:	f020 0004 	bic.w	r0, r0, #4
 80011fe:	6008      	str	r0, [r1, #0]
 8001200:	60ba      	str	r2, [r7, #8]
 8001202:	6d62      	ldr	r2, [r4, #84]	; 0x54
 8001204:	f042 0201 	orr.w	r2, r2, #1
 8001208:	6562      	str	r2, [r4, #84]	; 0x54
 800120a:	e79b      	b.n	8001144 <HAL_DMA_IRQHandler+0x24>
 800120c:	60ba      	str	r2, [r7, #8]
 800120e:	680a      	ldr	r2, [r1, #0]
 8001210:	f412 2f80 	tst.w	r2, #262144	; 0x40000
 8001214:	680a      	ldr	r2, [r1, #0]
 8001216:	d118      	bne.n	800124a <HAL_DMA_IRQHandler+0x12a>
 8001218:	05d2      	lsls	r2, r2, #23
 800121a:	d403      	bmi.n	8001224 <HAL_DMA_IRQHandler+0x104>
 800121c:	680a      	ldr	r2, [r1, #0]
 800121e:	f022 0208 	bic.w	r2, r2, #8
 8001222:	600a      	str	r2, [r1, #0]
 8001224:	6c22      	ldr	r2, [r4, #64]	; 0x40
 8001226:	2a00      	cmp	r2, #0
 8001228:	d0a4      	beq.n	8001174 <HAL_DMA_IRQHandler+0x54>
 800122a:	4620      	mov	r0, r4
 800122c:	4790      	blx	r2
 800122e:	6de3      	ldr	r3, [r4, #92]	; 0x5c
 8001230:	e7a0      	b.n	8001174 <HAL_DMA_IRQHandler+0x54>
 8001232:	60ba      	str	r2, [r7, #8]
 8001234:	6d62      	ldr	r2, [r4, #84]	; 0x54
 8001236:	f042 0204 	orr.w	r2, r2, #4
 800123a:	6562      	str	r2, [r4, #84]	; 0x54
 800123c:	e792      	b.n	8001164 <HAL_DMA_IRQHandler+0x44>
 800123e:	60ba      	str	r2, [r7, #8]
 8001240:	6d62      	ldr	r2, [r4, #84]	; 0x54
 8001242:	f042 0202 	orr.w	r2, r2, #2
 8001246:	6562      	str	r2, [r4, #84]	; 0x54
 8001248:	e784      	b.n	8001154 <HAL_DMA_IRQHandler+0x34>
 800124a:	0311      	lsls	r1, r2, #12
 800124c:	d5ea      	bpl.n	8001224 <HAL_DMA_IRQHandler+0x104>
 800124e:	6ca2      	ldr	r2, [r4, #72]	; 0x48
 8001250:	2a00      	cmp	r2, #0
 8001252:	d1ea      	bne.n	800122a <HAL_DMA_IRQHandler+0x10a>
 8001254:	e78e      	b.n	8001174 <HAL_DMA_IRQHandler+0x54>
 8001256:	680a      	ldr	r2, [r1, #0]
 8001258:	6c20      	ldr	r0, [r4, #64]	; 0x40
 800125a:	f022 0216 	bic.w	r2, r2, #22
 800125e:	600a      	str	r2, [r1, #0]
 8001260:	694a      	ldr	r2, [r1, #20]
 8001262:	f022 0280 	bic.w	r2, r2, #128	; 0x80
 8001266:	614a      	str	r2, [r1, #20]
 8001268:	b338      	cbz	r0, 80012ba <HAL_DMA_IRQHandler+0x19a>
 800126a:	680a      	ldr	r2, [r1, #0]
 800126c:	f022 0208 	bic.w	r2, r2, #8
 8001270:	600a      	str	r2, [r1, #0]
 8001272:	223f      	movs	r2, #63	; 0x3f
 8001274:	6d21      	ldr	r1, [r4, #80]	; 0x50
 8001276:	fa02 f303 	lsl.w	r3, r2, r3
 800127a:	2000      	movs	r0, #0
 800127c:	2201      	movs	r2, #1
 800127e:	60bb      	str	r3, [r7, #8]
 8001280:	f884 0034 	strb.w	r0, [r4, #52]	; 0x34
 8001284:	f884 2035 	strb.w	r2, [r4, #53]	; 0x35
 8001288:	2900      	cmp	r1, #0
 800128a:	d0b3      	beq.n	80011f4 <HAL_DMA_IRQHandler+0xd4>
 800128c:	4620      	mov	r0, r4
 800128e:	b003      	add	sp, #12
 8001290:	e8bd 40f0 	ldmia.w	sp!, {r4, r5, r6, r7, lr}
 8001294:	4708      	bx	r1
 8001296:	f413 7380 	ands.w	r3, r3, #256	; 0x100
 800129a:	d180      	bne.n	800119e <HAL_DMA_IRQHandler+0x7e>
 800129c:	680a      	ldr	r2, [r1, #0]
 800129e:	2001      	movs	r0, #1
 80012a0:	f022 0210 	bic.w	r2, r2, #16
 80012a4:	600a      	str	r2, [r1, #0]
 80012a6:	f884 3034 	strb.w	r3, [r4, #52]	; 0x34
 80012aa:	f884 0035 	strb.w	r0, [r4, #53]	; 0x35
 80012ae:	e776      	b.n	800119e <HAL_DMA_IRQHandler+0x7e>
 80012b0:	6c63      	ldr	r3, [r4, #68]	; 0x44
 80012b2:	2b00      	cmp	r3, #0
 80012b4:	f47f af75 	bne.w	80011a2 <HAL_DMA_IRQHandler+0x82>
 80012b8:	e775      	b.n	80011a6 <HAL_DMA_IRQHandler+0x86>
 80012ba:	6ca2      	ldr	r2, [r4, #72]	; 0x48
 80012bc:	2a00      	cmp	r2, #0
 80012be:	d1d4      	bne.n	800126a <HAL_DMA_IRQHandler+0x14a>
 80012c0:	e7d7      	b.n	8001272 <HAL_DMA_IRQHandler+0x152>
 80012c2:	bf00      	nop
 80012c4:	20000000 	.word	0x20000000
 80012c8:	1b4e81b5 	.word	0x1b4e81b5

080012cc <HAL_GPIO_Init>:
 80012cc:	e92d 4ff0 	stmdb	sp!, {r4, r5, r6, r7, r8, r9, sl, fp, lr}
 80012d0:	f8df c214 	ldr.w	ip, [pc, #532]	; 80014e8 <HAL_GPIO_Init+0x21c>
 80012d4:	f8df 8214 	ldr.w	r8, [pc, #532]	; 80014ec <HAL_GPIO_Init+0x220>
 80012d8:	f8d1 e000 	ldr.w	lr, [r1]
 80012dc:	b083      	sub	sp, #12
 80012de:	2500      	movs	r5, #0
 80012e0:	e003      	b.n	80012ea <HAL_GPIO_Init+0x1e>
 80012e2:	3501      	adds	r5, #1
 80012e4:	2d10      	cmp	r5, #16
 80012e6:	f000 8094 	beq.w	8001412 <HAL_GPIO_Init+0x146>
 80012ea:	2301      	movs	r3, #1
 80012ec:	40ab      	lsls	r3, r5
 80012ee:	ea0e 0403 	and.w	r4, lr, r3
 80012f2:	42a3      	cmp	r3, r4
 80012f4:	d1f5      	bne.n	80012e2 <HAL_GPIO_Init+0x16>
 80012f6:	684e      	ldr	r6, [r1, #4]
 80012f8:	f026 0a10 	bic.w	sl, r6, #16
 80012fc:	f1ba 0f02 	cmp.w	sl, #2
 8001300:	f000 808a 	beq.w	8001418 <HAL_GPIO_Init+0x14c>
 8001304:	ea4f 0945 	mov.w	r9, r5, lsl #1
 8001308:	2203      	movs	r2, #3
 800130a:	f8d0 b000 	ldr.w	fp, [r0]
 800130e:	fa02 f209 	lsl.w	r2, r2, r9
 8001312:	43d2      	mvns	r2, r2
 8001314:	f006 0703 	and.w	r7, r6, #3
 8001318:	ea02 0b0b 	and.w	fp, r2, fp
 800131c:	fa07 f709 	lsl.w	r7, r7, r9
 8001320:	f10a 3aff 	add.w	sl, sl, #4294967295
 8001324:	ea47 070b 	orr.w	r7, r7, fp
 8001328:	f1ba 0f01 	cmp.w	sl, #1
 800132c:	6007      	str	r7, [r0, #0]
 800132e:	f240 8099 	bls.w	8001464 <HAL_GPIO_Init+0x198>
 8001332:	68c7      	ldr	r7, [r0, #12]
 8001334:	688b      	ldr	r3, [r1, #8]
 8001336:	403a      	ands	r2, r7
 8001338:	fa03 f309 	lsl.w	r3, r3, r9
 800133c:	4313      	orrs	r3, r2
 800133e:	60c3      	str	r3, [r0, #12]
 8001340:	00f3      	lsls	r3, r6, #3
 8001342:	d5ce      	bpl.n	80012e2 <HAL_GPIO_Init+0x16>
 8001344:	2300      	movs	r3, #0
 8001346:	9301      	str	r3, [sp, #4]
 8001348:	f8d8 3044 	ldr.w	r3, [r8, #68]	; 0x44
 800134c:	f443 4380 	orr.w	r3, r3, #16384	; 0x4000
 8001350:	f8c8 3044 	str.w	r3, [r8, #68]	; 0x44
 8001354:	f8d8 3044 	ldr.w	r3, [r8, #68]	; 0x44
 8001358:	f025 0203 	bic.w	r2, r5, #3
 800135c:	f102 4280 	add.w	r2, r2, #1073741824	; 0x40000000
 8001360:	f403 4380 	and.w	r3, r3, #16384	; 0x4000
 8001364:	f502 329c 	add.w	r2, r2, #79872	; 0x13800
 8001368:	9301      	str	r3, [sp, #4]
 800136a:	f005 0703 	and.w	r7, r5, #3
 800136e:	9b01      	ldr	r3, [sp, #4]
 8001370:	f8d2 9008 	ldr.w	r9, [r2, #8]
 8001374:	00bf      	lsls	r7, r7, #2
 8001376:	230f      	movs	r3, #15
 8001378:	40bb      	lsls	r3, r7
 800137a:	ea29 0a03 	bic.w	sl, r9, r3
 800137e:	4b54      	ldr	r3, [pc, #336]	; (80014d0 <HAL_GPIO_Init+0x204>)
 8001380:	4298      	cmp	r0, r3
 8001382:	d01e      	beq.n	80013c2 <HAL_GPIO_Init+0xf6>
 8001384:	f503 6380 	add.w	r3, r3, #1024	; 0x400
 8001388:	4298      	cmp	r0, r3
 800138a:	d07e      	beq.n	800148a <HAL_GPIO_Init+0x1be>
 800138c:	4b51      	ldr	r3, [pc, #324]	; (80014d4 <HAL_GPIO_Init+0x208>)
 800138e:	4298      	cmp	r0, r3
 8001390:	f000 8082 	beq.w	8001498 <HAL_GPIO_Init+0x1cc>
 8001394:	4b50      	ldr	r3, [pc, #320]	; (80014d8 <HAL_GPIO_Init+0x20c>)
 8001396:	4298      	cmp	r0, r3
 8001398:	f000 8085 	beq.w	80014a6 <HAL_GPIO_Init+0x1da>
 800139c:	4b4f      	ldr	r3, [pc, #316]	; (80014dc <HAL_GPIO_Init+0x210>)
 800139e:	4298      	cmp	r0, r3
 80013a0:	f000 8088 	beq.w	80014b4 <HAL_GPIO_Init+0x1e8>
 80013a4:	4b4e      	ldr	r3, [pc, #312]	; (80014e0 <HAL_GPIO_Init+0x214>)
 80013a6:	4298      	cmp	r0, r3
 80013a8:	f000 808b 	beq.w	80014c2 <HAL_GPIO_Init+0x1f6>
 80013ac:	4b4d      	ldr	r3, [pc, #308]	; (80014e4 <HAL_GPIO_Init+0x218>)
 80013ae:	4298      	cmp	r0, r3
 80013b0:	bf0c      	ite	eq
 80013b2:	f04f 0906 	moveq.w	r9, #6
 80013b6:	f04f 0907 	movne.w	r9, #7
 80013ba:	fa09 f707 	lsl.w	r7, r9, r7
 80013be:	ea4a 0a07 	orr.w	sl, sl, r7
 80013c2:	f8c2 a008 	str.w	sl, [r2, #8]
 80013c6:	f8dc 3000 	ldr.w	r3, [ip]
 80013ca:	43e2      	mvns	r2, r4
 80013cc:	03f7      	lsls	r7, r6, #15
 80013ce:	bf54      	ite	pl
 80013d0:	4013      	andpl	r3, r2
 80013d2:	4323      	orrmi	r3, r4
 80013d4:	f8cc 3000 	str.w	r3, [ip]
 80013d8:	f8dc 3004 	ldr.w	r3, [ip, #4]
 80013dc:	03b7      	lsls	r7, r6, #14
 80013de:	bf54      	ite	pl
 80013e0:	4013      	andpl	r3, r2
 80013e2:	4323      	orrmi	r3, r4
 80013e4:	f8cc 3004 	str.w	r3, [ip, #4]
 80013e8:	f8dc 3008 	ldr.w	r3, [ip, #8]
 80013ec:	02f7      	lsls	r7, r6, #11
 80013ee:	bf54      	ite	pl
 80013f0:	4013      	andpl	r3, r2
 80013f2:	4323      	orrmi	r3, r4
 80013f4:	f8cc 3008 	str.w	r3, [ip, #8]
 80013f8:	f8dc 300c 	ldr.w	r3, [ip, #12]
 80013fc:	02b6      	lsls	r6, r6, #10
 80013fe:	f105 0501 	add.w	r5, r5, #1
 8001402:	bf54      	ite	pl
 8001404:	4013      	andpl	r3, r2
 8001406:	4323      	orrmi	r3, r4
 8001408:	2d10      	cmp	r5, #16
 800140a:	f8cc 300c 	str.w	r3, [ip, #12]
 800140e:	f47f af6c 	bne.w	80012ea <HAL_GPIO_Init+0x1e>
 8001412:	b003      	add	sp, #12
 8001414:	e8bd 8ff0 	ldmia.w	sp!, {r4, r5, r6, r7, r8, r9, sl, fp, pc}
 8001418:	ea4f 09d5 	mov.w	r9, r5, lsr #3
 800141c:	eb00 0989 	add.w	r9, r0, r9, lsl #2
 8001420:	f005 0707 	and.w	r7, r5, #7
 8001424:	f8d9 2020 	ldr.w	r2, [r9, #32]
 8001428:	00bf      	lsls	r7, r7, #2
 800142a:	f04f 0b0f 	mov.w	fp, #15
 800142e:	fa0b fb07 	lsl.w	fp, fp, r7
 8001432:	ea22 0a0b 	bic.w	sl, r2, fp
 8001436:	690a      	ldr	r2, [r1, #16]
 8001438:	40ba      	lsls	r2, r7
 800143a:	ea42 020a 	orr.w	r2, r2, sl
 800143e:	f8c9 2020 	str.w	r2, [r9, #32]
 8001442:	ea4f 0945 	mov.w	r9, r5, lsl #1
 8001446:	2203      	movs	r2, #3
 8001448:	f8d0 a000 	ldr.w	sl, [r0]
 800144c:	fa02 f209 	lsl.w	r2, r2, r9
 8001450:	43d2      	mvns	r2, r2
 8001452:	f006 0703 	and.w	r7, r6, #3
 8001456:	ea02 0a0a 	and.w	sl, r2, sl
 800145a:	fa07 f709 	lsl.w	r7, r7, r9
 800145e:	ea47 070a 	orr.w	r7, r7, sl
 8001462:	6007      	str	r7, [r0, #0]
 8001464:	6887      	ldr	r7, [r0, #8]
 8001466:	ea07 0a02 	and.w	sl, r7, r2
 800146a:	68cf      	ldr	r7, [r1, #12]
 800146c:	fa07 f709 	lsl.w	r7, r7, r9
 8001470:	ea47 070a 	orr.w	r7, r7, sl
 8001474:	6087      	str	r7, [r0, #8]
 8001476:	f8d0 a004 	ldr.w	sl, [r0, #4]
 800147a:	f3c6 1700 	ubfx	r7, r6, #4, #1
 800147e:	ea2a 0303 	bic.w	r3, sl, r3
 8001482:	40af      	lsls	r7, r5
 8001484:	431f      	orrs	r7, r3
 8001486:	6047      	str	r7, [r0, #4]
 8001488:	e753      	b.n	8001332 <HAL_GPIO_Init+0x66>
 800148a:	f04f 0901 	mov.w	r9, #1
 800148e:	fa09 f707 	lsl.w	r7, r9, r7
 8001492:	ea4a 0a07 	orr.w	sl, sl, r7
 8001496:	e794      	b.n	80013c2 <HAL_GPIO_Init+0xf6>
 8001498:	f04f 0902 	mov.w	r9, #2
 800149c:	fa09 f707 	lsl.w	r7, r9, r7
 80014a0:	ea4a 0a07 	orr.w	sl, sl, r7
 80014a4:	e78d      	b.n	80013c2 <HAL_GPIO_Init+0xf6>
 80014a6:	f04f 0903 	mov.w	r9, #3
 80014aa:	fa09 f707 	lsl.w	r7, r9, r7
 80014ae:	ea4a 0a07 	orr.w	sl, sl, r7
 80014b2:	e786      	b.n	80013c2 <HAL_GPIO_Init+0xf6>
 80014b4:	f04f 0904 	mov.w	r9, #4
 80014b8:	fa09 f707 	lsl.w	r7, r9, r7
 80014bc:	ea4a 0a07 	orr.w	sl, sl, r7
 80014c0:	e77f      	b.n	80013c2 <HAL_GPIO_Init+0xf6>
 80014c2:	f04f 0905 	mov.w	r9, #5
 80014c6:	fa09 f707 	lsl.w	r7, r9, r7
 80014ca:	ea4a 0a07 	orr.w	sl, sl, r7
 80014ce:	e778      	b.n	80013c2 <HAL_GPIO_Init+0xf6>
 80014d0:	40020000 	.word	0x40020000
 80014d4:	40020800 	.word	0x40020800
 80014d8:	40020c00 	.word	0x40020c00
 80014dc:	40021000 	.word	0x40021000
 80014e0:	40021400 	.word	0x40021400
 80014e4:	40021800 	.word	0x40021800
 80014e8:	40013c00 	.word	0x40013c00
 80014ec:	40023800 	.word	0x40023800

080014f0 <HAL_GPIO_WritePin>:
 80014f0:	b902      	cbnz	r2, 80014f4 <HAL_GPIO_WritePin+0x4>
 80014f2:	0409      	lsls	r1, r1, #16
 80014f4:	6181      	str	r1, [r0, #24]
 80014f6:	4770      	bx	lr

080014f8 <HAL_GPIO_TogglePin>:
 80014f8:	6943      	ldr	r3, [r0, #20]
 80014fa:	ea31 0303 	bics.w	r3, r1, r3
 80014fe:	bf08      	it	eq
 8001500:	0409      	lsleq	r1, r1, #16
 8001502:	6181      	str	r1, [r0, #24]
 8001504:	4770      	bx	lr
 8001506:	bf00      	nop

08001508 <HAL_GPIO_EXTI_IRQHandler>:
 8001508:	4a04      	ldr	r2, [pc, #16]	; (800151c <HAL_GPIO_EXTI_IRQHandler+0x14>)
 800150a:	6951      	ldr	r1, [r2, #20]
 800150c:	4201      	tst	r1, r0
 800150e:	d100      	bne.n	8001512 <HAL_GPIO_EXTI_IRQHandler+0xa>
 8001510:	4770      	bx	lr
 8001512:	b508      	push	{r3, lr}
 8001514:	6150      	str	r0, [r2, #20]
 8001516:	f7ff facf 	bl	8000ab8 <HAL_GPIO_EXTI_Callback>
 800151a:	bd08      	pop	{r3, pc}
 800151c:	40013c00 	.word	0x40013c00

08001520 <HAL_RCC_ClockConfig>:
 8001520:	b160      	cbz	r0, 800153c <HAL_RCC_ClockConfig+0x1c>
 8001522:	4a48      	ldr	r2, [pc, #288]	; (8001644 <HAL_RCC_ClockConfig+0x124>)
 8001524:	6813      	ldr	r3, [r2, #0]
 8001526:	f003 030f 	and.w	r3, r3, #15
 800152a:	428b      	cmp	r3, r1
 800152c:	d208      	bcs.n	8001540 <HAL_RCC_ClockConfig+0x20>
 800152e:	b2cb      	uxtb	r3, r1
 8001530:	7013      	strb	r3, [r2, #0]
 8001532:	6813      	ldr	r3, [r2, #0]
 8001534:	f003 030f 	and.w	r3, r3, #15
 8001538:	428b      	cmp	r3, r1
 800153a:	d001      	beq.n	8001540 <HAL_RCC_ClockConfig+0x20>
 800153c:	2001      	movs	r0, #1
 800153e:	4770      	bx	lr
 8001540:	6803      	ldr	r3, [r0, #0]
 8001542:	e92d 41f0 	stmdb	sp!, {r4, r5, r6, r7, r8, lr}
 8001546:	079d      	lsls	r5, r3, #30
 8001548:	d514      	bpl.n	8001574 <HAL_RCC_ClockConfig+0x54>
 800154a:	075c      	lsls	r4, r3, #29
 800154c:	d504      	bpl.n	8001558 <HAL_RCC_ClockConfig+0x38>
 800154e:	4c3e      	ldr	r4, [pc, #248]	; (8001648 <HAL_RCC_ClockConfig+0x128>)
 8001550:	68a2      	ldr	r2, [r4, #8]
 8001552:	f442 52e0 	orr.w	r2, r2, #7168	; 0x1c00
 8001556:	60a2      	str	r2, [r4, #8]
 8001558:	071a      	lsls	r2, r3, #28
 800155a:	d504      	bpl.n	8001566 <HAL_RCC_ClockConfig+0x46>
 800155c:	4c3a      	ldr	r4, [pc, #232]	; (8001648 <HAL_RCC_ClockConfig+0x128>)
 800155e:	68a2      	ldr	r2, [r4, #8]
 8001560:	f442 4260 	orr.w	r2, r2, #57344	; 0xe000
 8001564:	60a2      	str	r2, [r4, #8]
 8001566:	4c38      	ldr	r4, [pc, #224]	; (8001648 <HAL_RCC_ClockConfig+0x128>)
 8001568:	6885      	ldr	r5, [r0, #8]
 800156a:	68a2      	ldr	r2, [r4, #8]
 800156c:	f022 02f0 	bic.w	r2, r2, #240	; 0xf0
 8001570:	432a      	orrs	r2, r5
 8001572:	60a2      	str	r2, [r4, #8]
 8001574:	07df      	lsls	r7, r3, #31
 8001576:	4604      	mov	r4, r0
 8001578:	460d      	mov	r5, r1
 800157a:	d522      	bpl.n	80015c2 <HAL_RCC_ClockConfig+0xa2>
 800157c:	6842      	ldr	r2, [r0, #4]
 800157e:	2a01      	cmp	r2, #1
 8001580:	d056      	beq.n	8001630 <HAL_RCC_ClockConfig+0x110>
 8001582:	1e93      	subs	r3, r2, #2
 8001584:	2b01      	cmp	r3, #1
 8001586:	4b30      	ldr	r3, [pc, #192]	; (8001648 <HAL_RCC_ClockConfig+0x128>)
 8001588:	681b      	ldr	r3, [r3, #0]
 800158a:	d958      	bls.n	800163e <HAL_RCC_ClockConfig+0x11e>
 800158c:	0799      	lsls	r1, r3, #30
 800158e:	d525      	bpl.n	80015dc <HAL_RCC_ClockConfig+0xbc>
 8001590:	4e2d      	ldr	r6, [pc, #180]	; (8001648 <HAL_RCC_ClockConfig+0x128>)
 8001592:	68b3      	ldr	r3, [r6, #8]
 8001594:	f023 0303 	bic.w	r3, r3, #3
 8001598:	4313      	orrs	r3, r2
 800159a:	60b3      	str	r3, [r6, #8]
 800159c:	f7ff fc9e 	bl	8000edc <HAL_GetTick>
 80015a0:	f241 3788 	movw	r7, #5000	; 0x1388
 80015a4:	4680      	mov	r8, r0
 80015a6:	e005      	b.n	80015b4 <HAL_RCC_ClockConfig+0x94>
 80015a8:	f7ff fc98 	bl	8000edc <HAL_GetTick>
 80015ac:	eba0 0008 	sub.w	r0, r0, r8
 80015b0:	42b8      	cmp	r0, r7
 80015b2:	d842      	bhi.n	800163a <HAL_RCC_ClockConfig+0x11a>
 80015b4:	68b3      	ldr	r3, [r6, #8]
 80015b6:	6862      	ldr	r2, [r4, #4]
 80015b8:	f003 030c 	and.w	r3, r3, #12
 80015bc:	ebb3 0f82 	cmp.w	r3, r2, lsl #2
 80015c0:	d1f2      	bne.n	80015a8 <HAL_RCC_ClockConfig+0x88>
 80015c2:	4a20      	ldr	r2, [pc, #128]	; (8001644 <HAL_RCC_ClockConfig+0x124>)
 80015c4:	6813      	ldr	r3, [r2, #0]
 80015c6:	f003 030f 	and.w	r3, r3, #15
 80015ca:	42ab      	cmp	r3, r5
 80015cc:	d909      	bls.n	80015e2 <HAL_RCC_ClockConfig+0xc2>
 80015ce:	b2eb      	uxtb	r3, r5
 80015d0:	7013      	strb	r3, [r2, #0]
 80015d2:	6813      	ldr	r3, [r2, #0]
 80015d4:	f003 030f 	and.w	r3, r3, #15
 80015d8:	42ab      	cmp	r3, r5
 80015da:	d002      	beq.n	80015e2 <HAL_RCC_ClockConfig+0xc2>
 80015dc:	2001      	movs	r0, #1
 80015de:	e8bd 81f0 	ldmia.w	sp!, {r4, r5, r6, r7, r8, pc}
 80015e2:	6823      	ldr	r3, [r4, #0]
 80015e4:	075a      	lsls	r2, r3, #29
 80015e6:	d506      	bpl.n	80015f6 <HAL_RCC_ClockConfig+0xd6>
 80015e8:	4917      	ldr	r1, [pc, #92]	; (8001648 <HAL_RCC_ClockConfig+0x128>)
 80015ea:	68e0      	ldr	r0, [r4, #12]
 80015ec:	688a      	ldr	r2, [r1, #8]
 80015ee:	f422 52e0 	bic.w	r2, r2, #7168	; 0x1c00
 80015f2:	4302      	orrs	r2, r0
 80015f4:	608a      	str	r2, [r1, #8]
 80015f6:	071b      	lsls	r3, r3, #28
 80015f8:	d411      	bmi.n	800161e <HAL_RCC_ClockConfig+0xfe>
 80015fa:	f000 f84b 	bl	8001694 <HAL_RCC_GetSysClockFreq>
 80015fe:	4b12      	ldr	r3, [pc, #72]	; (8001648 <HAL_RCC_ClockConfig+0x128>)
 8001600:	4912      	ldr	r1, [pc, #72]	; (800164c <HAL_RCC_ClockConfig+0x12c>)
 8001602:	689b      	ldr	r3, [r3, #8]
 8001604:	4a12      	ldr	r2, [pc, #72]	; (8001650 <HAL_RCC_ClockConfig+0x130>)
 8001606:	f3c3 1303 	ubfx	r3, r3, #4, #4
 800160a:	5ccb      	ldrb	r3, [r1, r3]
 800160c:	fa20 f303 	lsr.w	r3, r0, r3
 8001610:	2000      	movs	r0, #0
 8001612:	6013      	str	r3, [r2, #0]
 8001614:	f7ff fc18 	bl	8000e48 <HAL_InitTick>
 8001618:	2000      	movs	r0, #0
 800161a:	e8bd 81f0 	ldmia.w	sp!, {r4, r5, r6, r7, r8, pc}
 800161e:	4a0a      	ldr	r2, [pc, #40]	; (8001648 <HAL_RCC_ClockConfig+0x128>)
 8001620:	6921      	ldr	r1, [r4, #16]
 8001622:	6893      	ldr	r3, [r2, #8]
 8001624:	f423 4360 	bic.w	r3, r3, #57344	; 0xe000
 8001628:	ea43 03c1 	orr.w	r3, r3, r1, lsl #3
 800162c:	6093      	str	r3, [r2, #8]
 800162e:	e7e4      	b.n	80015fa <HAL_RCC_ClockConfig+0xda>
 8001630:	4b05      	ldr	r3, [pc, #20]	; (8001648 <HAL_RCC_ClockConfig+0x128>)
 8001632:	681b      	ldr	r3, [r3, #0]
 8001634:	039e      	lsls	r6, r3, #14
 8001636:	d4ab      	bmi.n	8001590 <HAL_RCC_ClockConfig+0x70>
 8001638:	e7d0      	b.n	80015dc <HAL_RCC_ClockConfig+0xbc>
 800163a:	2003      	movs	r0, #3
 800163c:	e7ed      	b.n	800161a <HAL_RCC_ClockConfig+0xfa>
 800163e:	0198      	lsls	r0, r3, #6
 8001640:	d4a6      	bmi.n	8001590 <HAL_RCC_ClockConfig+0x70>
 8001642:	e7cb      	b.n	80015dc <HAL_RCC_ClockConfig+0xbc>
 8001644:	40023c00 	.word	0x40023c00
 8001648:	40023800 	.word	0x40023800
 800164c:	08002f88 	.word	0x08002f88
 8001650:	20000000 	.word	0x20000000

08001654 <HAL_RCC_GetPCLK1Freq>:
 8001654:	4b04      	ldr	r3, [pc, #16]	; (8001668 <HAL_RCC_GetPCLK1Freq+0x14>)
 8001656:	4a05      	ldr	r2, [pc, #20]	; (800166c <HAL_RCC_GetPCLK1Freq+0x18>)
 8001658:	689b      	ldr	r3, [r3, #8]
 800165a:	4905      	ldr	r1, [pc, #20]	; (8001670 <HAL_RCC_GetPCLK1Freq+0x1c>)
 800165c:	f3c3 2382 	ubfx	r3, r3, #10, #3
 8001660:	6808      	ldr	r0, [r1, #0]
 8001662:	5cd3      	ldrb	r3, [r2, r3]
 8001664:	40d8      	lsrs	r0, r3
 8001666:	4770      	bx	lr
 8001668:	40023800 	.word	0x40023800
 800166c:	08002f98 	.word	0x08002f98
 8001670:	20000000 	.word	0x20000000

08001674 <HAL_RCC_GetPCLK2Freq>:
 8001674:	4b04      	ldr	r3, [pc, #16]	; (8001688 <HAL_RCC_GetPCLK2Freq+0x14>)
 8001676:	4a05      	ldr	r2, [pc, #20]	; (800168c <HAL_RCC_GetPCLK2Freq+0x18>)
 8001678:	689b      	ldr	r3, [r3, #8]
 800167a:	4905      	ldr	r1, [pc, #20]	; (8001690 <HAL_RCC_GetPCLK2Freq+0x1c>)
 800167c:	f3c3 3342 	ubfx	r3, r3, #13, #3
 8001680:	6808      	ldr	r0, [r1, #0]
 8001682:	5cd3      	ldrb	r3, [r2, r3]
 8001684:	40d8      	lsrs	r0, r3
 8001686:	4770      	bx	lr
 8001688:	40023800 	.word	0x40023800
 800168c:	08002f98 	.word	0x08002f98
 8001690:	20000000 	.word	0x20000000

08001694 <HAL_RCC_GetSysClockFreq>:
 8001694:	4928      	ldr	r1, [pc, #160]	; (8001738 <HAL_RCC_GetSysClockFreq+0xa4>)
 8001696:	b508      	push	{r3, lr}
 8001698:	688b      	ldr	r3, [r1, #8]
 800169a:	f003 030c 	and.w	r3, r3, #12
 800169e:	2b08      	cmp	r3, #8
 80016a0:	d007      	beq.n	80016b2 <HAL_RCC_GetSysClockFreq+0x1e>
 80016a2:	2b0c      	cmp	r3, #12
 80016a4:	d01d      	beq.n	80016e2 <HAL_RCC_GetSysClockFreq+0x4e>
 80016a6:	4a25      	ldr	r2, [pc, #148]	; (800173c <HAL_RCC_GetSysClockFreq+0xa8>)
 80016a8:	4825      	ldr	r0, [pc, #148]	; (8001740 <HAL_RCC_GetSysClockFreq+0xac>)
 80016aa:	2b04      	cmp	r3, #4
 80016ac:	bf18      	it	ne
 80016ae:	4610      	movne	r0, r2
 80016b0:	bd08      	pop	{r3, pc}
 80016b2:	684a      	ldr	r2, [r1, #4]
 80016b4:	684b      	ldr	r3, [r1, #4]
 80016b6:	f413 0380 	ands.w	r3, r3, #4194304	; 0x400000
 80016ba:	f002 023f 	and.w	r2, r2, #63	; 0x3f
 80016be:	d130      	bne.n	8001722 <HAL_RCC_GetSysClockFreq+0x8e>
 80016c0:	6849      	ldr	r1, [r1, #4]
 80016c2:	481e      	ldr	r0, [pc, #120]	; (800173c <HAL_RCC_GetSysClockFreq+0xa8>)
 80016c4:	f3c1 1188 	ubfx	r1, r1, #6, #9
 80016c8:	fba1 0100 	umull	r0, r1, r1, r0
 80016cc:	f7fe fdf0 	bl	80002b0 <__aeabi_uldivmod>
 80016d0:	4b19      	ldr	r3, [pc, #100]	; (8001738 <HAL_RCC_GetSysClockFreq+0xa4>)
 80016d2:	685b      	ldr	r3, [r3, #4]
 80016d4:	f3c3 4301 	ubfx	r3, r3, #16, #2
 80016d8:	3301      	adds	r3, #1
 80016da:	005b      	lsls	r3, r3, #1
 80016dc:	fbb0 f0f3 	udiv	r0, r0, r3
 80016e0:	bd08      	pop	{r3, pc}
 80016e2:	684a      	ldr	r2, [r1, #4]
 80016e4:	684b      	ldr	r3, [r1, #4]
 80016e6:	f413 0380 	ands.w	r3, r3, #4194304	; 0x400000
 80016ea:	f002 023f 	and.w	r2, r2, #63	; 0x3f
 80016ee:	d10e      	bne.n	800170e <HAL_RCC_GetSysClockFreq+0x7a>
 80016f0:	6849      	ldr	r1, [r1, #4]
 80016f2:	4812      	ldr	r0, [pc, #72]	; (800173c <HAL_RCC_GetSysClockFreq+0xa8>)
 80016f4:	f3c1 1188 	ubfx	r1, r1, #6, #9
 80016f8:	fba1 0100 	umull	r0, r1, r1, r0
 80016fc:	f7fe fdd8 	bl	80002b0 <__aeabi_uldivmod>
 8001700:	4b0d      	ldr	r3, [pc, #52]	; (8001738 <HAL_RCC_GetSysClockFreq+0xa4>)
 8001702:	685b      	ldr	r3, [r3, #4]
 8001704:	f3c3 7302 	ubfx	r3, r3, #28, #3
 8001708:	fbb0 f0f3 	udiv	r0, r0, r3
 800170c:	bd08      	pop	{r3, pc}
 800170e:	684b      	ldr	r3, [r1, #4]
 8001710:	480b      	ldr	r0, [pc, #44]	; (8001740 <HAL_RCC_GetSysClockFreq+0xac>)
 8001712:	f3c3 1388 	ubfx	r3, r3, #6, #9
 8001716:	fba3 0100 	umull	r0, r1, r3, r0
 800171a:	2300      	movs	r3, #0
 800171c:	f7fe fdc8 	bl	80002b0 <__aeabi_uldivmod>
 8001720:	e7ee      	b.n	8001700 <HAL_RCC_GetSysClockFreq+0x6c>
 8001722:	684b      	ldr	r3, [r1, #4]
 8001724:	4806      	ldr	r0, [pc, #24]	; (8001740 <HAL_RCC_GetSysClockFreq+0xac>)
 8001726:	f3c3 1388 	ubfx	r3, r3, #6, #9
 800172a:	fba3 0100 	umull	r0, r1, r3, r0
 800172e:	2300      	movs	r3, #0
 8001730:	f7fe fdbe 	bl	80002b0 <__aeabi_uldivmod>
 8001734:	e7cc      	b.n	80016d0 <HAL_RCC_GetSysClockFreq+0x3c>
 8001736:	bf00      	nop
 8001738:	40023800 	.word	0x40023800
 800173c:	00f42400 	.word	0x00f42400
 8001740:	017d7840 	.word	0x017d7840

08001744 <HAL_RCC_OscConfig>:
 8001744:	e92d 41f0 	stmdb	sp!, {r4, r5, r6, r7, r8, lr}
 8001748:	6803      	ldr	r3, [r0, #0]
 800174a:	07da      	lsls	r2, r3, #31
 800174c:	b082      	sub	sp, #8
 800174e:	4604      	mov	r4, r0
 8001750:	d536      	bpl.n	80017c0 <HAL_RCC_OscConfig+0x7c>
 8001752:	49ae      	ldr	r1, [pc, #696]	; (8001a0c <HAL_RCC_OscConfig+0x2c8>)
 8001754:	688a      	ldr	r2, [r1, #8]
 8001756:	f002 020c 	and.w	r2, r2, #12
 800175a:	2a04      	cmp	r2, #4
 800175c:	f000 80d2 	beq.w	8001904 <HAL_RCC_OscConfig+0x1c0>
 8001760:	688a      	ldr	r2, [r1, #8]
 8001762:	f002 020c 	and.w	r2, r2, #12
 8001766:	2a08      	cmp	r2, #8
 8001768:	f000 80c8 	beq.w	80018fc <HAL_RCC_OscConfig+0x1b8>
 800176c:	49a7      	ldr	r1, [pc, #668]	; (8001a0c <HAL_RCC_OscConfig+0x2c8>)
 800176e:	688a      	ldr	r2, [r1, #8]
 8001770:	f002 020c 	and.w	r2, r2, #12
 8001774:	2a0c      	cmp	r2, #12
 8001776:	f000 8104 	beq.w	8001982 <HAL_RCC_OscConfig+0x23e>
 800177a:	6863      	ldr	r3, [r4, #4]
 800177c:	f5b3 3f80 	cmp.w	r3, #65536	; 0x10000
 8001780:	f000 8104 	beq.w	800198c <HAL_RCC_OscConfig+0x248>
 8001784:	f5b3 2fa0 	cmp.w	r3, #327680	; 0x50000
 8001788:	f000 8160 	beq.w	8001a4c <HAL_RCC_OscConfig+0x308>
 800178c:	4d9f      	ldr	r5, [pc, #636]	; (8001a0c <HAL_RCC_OscConfig+0x2c8>)
 800178e:	682a      	ldr	r2, [r5, #0]
 8001790:	f422 3280 	bic.w	r2, r2, #65536	; 0x10000
 8001794:	602a      	str	r2, [r5, #0]
 8001796:	682a      	ldr	r2, [r5, #0]
 8001798:	f422 2280 	bic.w	r2, r2, #262144	; 0x40000
 800179c:	602a      	str	r2, [r5, #0]
 800179e:	2b00      	cmp	r3, #0
 80017a0:	f040 80f9 	bne.w	8001996 <HAL_RCC_OscConfig+0x252>
 80017a4:	f7ff fb9a 	bl	8000edc <HAL_GetTick>
 80017a8:	4606      	mov	r6, r0
 80017aa:	e005      	b.n	80017b8 <HAL_RCC_OscConfig+0x74>
 80017ac:	f7ff fb96 	bl	8000edc <HAL_GetTick>
 80017b0:	1b80      	subs	r0, r0, r6
 80017b2:	2864      	cmp	r0, #100	; 0x64
 80017b4:	f200 810d 	bhi.w	80019d2 <HAL_RCC_OscConfig+0x28e>
 80017b8:	682b      	ldr	r3, [r5, #0]
 80017ba:	0399      	lsls	r1, r3, #14
 80017bc:	d4f6      	bmi.n	80017ac <HAL_RCC_OscConfig+0x68>
 80017be:	6823      	ldr	r3, [r4, #0]
 80017c0:	079a      	lsls	r2, r3, #30
 80017c2:	d52f      	bpl.n	8001824 <HAL_RCC_OscConfig+0xe0>
 80017c4:	4a91      	ldr	r2, [pc, #580]	; (8001a0c <HAL_RCC_OscConfig+0x2c8>)
 80017c6:	6891      	ldr	r1, [r2, #8]
 80017c8:	f011 0f0c 	tst.w	r1, #12
 80017cc:	f000 80ab 	beq.w	8001926 <HAL_RCC_OscConfig+0x1e2>
 80017d0:	6891      	ldr	r1, [r2, #8]
 80017d2:	f001 010c 	and.w	r1, r1, #12
 80017d6:	2908      	cmp	r1, #8
 80017d8:	f000 80a1 	beq.w	800191e <HAL_RCC_OscConfig+0x1da>
 80017dc:	498b      	ldr	r1, [pc, #556]	; (8001a0c <HAL_RCC_OscConfig+0x2c8>)
 80017de:	688a      	ldr	r2, [r1, #8]
 80017e0:	f002 020c 	and.w	r2, r2, #12
 80017e4:	2a0c      	cmp	r2, #12
 80017e6:	f000 812c 	beq.w	8001a42 <HAL_RCC_OscConfig+0x2fe>
 80017ea:	68e3      	ldr	r3, [r4, #12]
 80017ec:	2b00      	cmp	r3, #0
 80017ee:	f000 8117 	beq.w	8001a20 <HAL_RCC_OscConfig+0x2dc>
 80017f2:	4b87      	ldr	r3, [pc, #540]	; (8001a10 <HAL_RCC_OscConfig+0x2cc>)
 80017f4:	4d85      	ldr	r5, [pc, #532]	; (8001a0c <HAL_RCC_OscConfig+0x2c8>)
 80017f6:	2201      	movs	r2, #1
 80017f8:	601a      	str	r2, [r3, #0]
 80017fa:	f7ff fb6f 	bl	8000edc <HAL_GetTick>
 80017fe:	4606      	mov	r6, r0
 8001800:	e005      	b.n	800180e <HAL_RCC_OscConfig+0xca>
 8001802:	f7ff fb6b 	bl	8000edc <HAL_GetTick>
 8001806:	1b80      	subs	r0, r0, r6
 8001808:	2802      	cmp	r0, #2
 800180a:	f200 80e2 	bhi.w	80019d2 <HAL_RCC_OscConfig+0x28e>
 800180e:	682b      	ldr	r3, [r5, #0]
 8001810:	0798      	lsls	r0, r3, #30
 8001812:	d5f6      	bpl.n	8001802 <HAL_RCC_OscConfig+0xbe>
 8001814:	682b      	ldr	r3, [r5, #0]
 8001816:	6922      	ldr	r2, [r4, #16]
 8001818:	f023 03f8 	bic.w	r3, r3, #248	; 0xf8
 800181c:	ea43 03c2 	orr.w	r3, r3, r2, lsl #3
 8001820:	602b      	str	r3, [r5, #0]
 8001822:	6823      	ldr	r3, [r4, #0]
 8001824:	071a      	lsls	r2, r3, #28
 8001826:	d515      	bpl.n	8001854 <HAL_RCC_OscConfig+0x110>
 8001828:	6963      	ldr	r3, [r4, #20]
 800182a:	2b00      	cmp	r3, #0
 800182c:	f000 808d 	beq.w	800194a <HAL_RCC_OscConfig+0x206>
 8001830:	4b78      	ldr	r3, [pc, #480]	; (8001a14 <HAL_RCC_OscConfig+0x2d0>)
 8001832:	4d76      	ldr	r5, [pc, #472]	; (8001a0c <HAL_RCC_OscConfig+0x2c8>)
 8001834:	2201      	movs	r2, #1
 8001836:	601a      	str	r2, [r3, #0]
 8001838:	f7ff fb50 	bl	8000edc <HAL_GetTick>
 800183c:	4606      	mov	r6, r0
 800183e:	e005      	b.n	800184c <HAL_RCC_OscConfig+0x108>
 8001840:	f7ff fb4c 	bl	8000edc <HAL_GetTick>
 8001844:	1b80      	subs	r0, r0, r6
 8001846:	2802      	cmp	r0, #2
 8001848:	f200 80c3 	bhi.w	80019d2 <HAL_RCC_OscConfig+0x28e>
 800184c:	6f6b      	ldr	r3, [r5, #116]	; 0x74
 800184e:	079b      	lsls	r3, r3, #30
 8001850:	d5f6      	bpl.n	8001840 <HAL_RCC_OscConfig+0xfc>
 8001852:	6823      	ldr	r3, [r4, #0]
 8001854:	0758      	lsls	r0, r3, #29
 8001856:	d531      	bpl.n	80018bc <HAL_RCC_OscConfig+0x178>
 8001858:	4a6c      	ldr	r2, [pc, #432]	; (8001a0c <HAL_RCC_OscConfig+0x2c8>)
 800185a:	6c13      	ldr	r3, [r2, #64]	; 0x40
 800185c:	f013 5380 	ands.w	r3, r3, #268435456	; 0x10000000
 8001860:	f000 8083 	beq.w	800196a <HAL_RCC_OscConfig+0x226>
 8001864:	2600      	movs	r6, #0
 8001866:	4d6c      	ldr	r5, [pc, #432]	; (8001a18 <HAL_RCC_OscConfig+0x2d4>)
 8001868:	682a      	ldr	r2, [r5, #0]
 800186a:	05d1      	lsls	r1, r2, #23
 800186c:	f140 80a1 	bpl.w	80019b2 <HAL_RCC_OscConfig+0x26e>
 8001870:	68a3      	ldr	r3, [r4, #8]
 8001872:	2b01      	cmp	r3, #1
 8001874:	f000 80b1 	beq.w	80019da <HAL_RCC_OscConfig+0x296>
 8001878:	2b05      	cmp	r3, #5
 800187a:	f000 80f7 	beq.w	8001a6c <HAL_RCC_OscConfig+0x328>
 800187e:	4d63      	ldr	r5, [pc, #396]	; (8001a0c <HAL_RCC_OscConfig+0x2c8>)
 8001880:	6f2a      	ldr	r2, [r5, #112]	; 0x70
 8001882:	f022 0201 	bic.w	r2, r2, #1
 8001886:	672a      	str	r2, [r5, #112]	; 0x70
 8001888:	6f2a      	ldr	r2, [r5, #112]	; 0x70
 800188a:	f022 0204 	bic.w	r2, r2, #4
 800188e:	672a      	str	r2, [r5, #112]	; 0x70
 8001890:	2b00      	cmp	r3, #0
 8001892:	f040 80a7 	bne.w	80019e4 <HAL_RCC_OscConfig+0x2a0>
 8001896:	f7ff fb21 	bl	8000edc <HAL_GetTick>
 800189a:	f241 3788 	movw	r7, #5000	; 0x1388
 800189e:	4680      	mov	r8, r0
 80018a0:	e006      	b.n	80018b0 <HAL_RCC_OscConfig+0x16c>
 80018a2:	f7ff fb1b 	bl	8000edc <HAL_GetTick>
 80018a6:	eba0 0008 	sub.w	r0, r0, r8
 80018aa:	42b8      	cmp	r0, r7
 80018ac:	f200 8091 	bhi.w	80019d2 <HAL_RCC_OscConfig+0x28e>
 80018b0:	6f2b      	ldr	r3, [r5, #112]	; 0x70
 80018b2:	0798      	lsls	r0, r3, #30
 80018b4:	d4f5      	bmi.n	80018a2 <HAL_RCC_OscConfig+0x15e>
 80018b6:	2e00      	cmp	r6, #0
 80018b8:	f040 80d2 	bne.w	8001a60 <HAL_RCC_OscConfig+0x31c>
 80018bc:	69a2      	ldr	r2, [r4, #24]
 80018be:	b1ca      	cbz	r2, 80018f4 <HAL_RCC_OscConfig+0x1b0>
 80018c0:	4d52      	ldr	r5, [pc, #328]	; (8001a0c <HAL_RCC_OscConfig+0x2c8>)
 80018c2:	68a9      	ldr	r1, [r5, #8]
 80018c4:	f001 010c 	and.w	r1, r1, #12
 80018c8:	2908      	cmp	r1, #8
 80018ca:	d024      	beq.n	8001916 <HAL_RCC_OscConfig+0x1d2>
 80018cc:	2a02      	cmp	r2, #2
 80018ce:	4a53      	ldr	r2, [pc, #332]	; (8001a1c <HAL_RCC_OscConfig+0x2d8>)
 80018d0:	f04f 0100 	mov.w	r1, #0
 80018d4:	6011      	str	r1, [r2, #0]
 80018d6:	f000 80d3 	beq.w	8001a80 <HAL_RCC_OscConfig+0x33c>
 80018da:	f7ff faff 	bl	8000edc <HAL_GetTick>
 80018de:	462c      	mov	r4, r5
 80018e0:	4605      	mov	r5, r0
 80018e2:	e004      	b.n	80018ee <HAL_RCC_OscConfig+0x1aa>
 80018e4:	f7ff fafa 	bl	8000edc <HAL_GetTick>
 80018e8:	1b40      	subs	r0, r0, r5
 80018ea:	2802      	cmp	r0, #2
 80018ec:	d871      	bhi.n	80019d2 <HAL_RCC_OscConfig+0x28e>
 80018ee:	6823      	ldr	r3, [r4, #0]
 80018f0:	019b      	lsls	r3, r3, #6
 80018f2:	d4f7      	bmi.n	80018e4 <HAL_RCC_OscConfig+0x1a0>
 80018f4:	2000      	movs	r0, #0
 80018f6:	b002      	add	sp, #8
 80018f8:	e8bd 81f0 	ldmia.w	sp!, {r4, r5, r6, r7, r8, pc}
 80018fc:	684a      	ldr	r2, [r1, #4]
 80018fe:	0257      	lsls	r7, r2, #9
 8001900:	f57f af34 	bpl.w	800176c <HAL_RCC_OscConfig+0x28>
 8001904:	4a41      	ldr	r2, [pc, #260]	; (8001a0c <HAL_RCC_OscConfig+0x2c8>)
 8001906:	6812      	ldr	r2, [r2, #0]
 8001908:	0395      	lsls	r5, r2, #14
 800190a:	f57f af59 	bpl.w	80017c0 <HAL_RCC_OscConfig+0x7c>
 800190e:	6862      	ldr	r2, [r4, #4]
 8001910:	2a00      	cmp	r2, #0
 8001912:	f47f af55 	bne.w	80017c0 <HAL_RCC_OscConfig+0x7c>
 8001916:	2001      	movs	r0, #1
 8001918:	b002      	add	sp, #8
 800191a:	e8bd 81f0 	ldmia.w	sp!, {r4, r5, r6, r7, r8, pc}
 800191e:	6852      	ldr	r2, [r2, #4]
 8001920:	0257      	lsls	r7, r2, #9
 8001922:	f53f af5b 	bmi.w	80017dc <HAL_RCC_OscConfig+0x98>
 8001926:	4a39      	ldr	r2, [pc, #228]	; (8001a0c <HAL_RCC_OscConfig+0x2c8>)
 8001928:	6812      	ldr	r2, [r2, #0]
 800192a:	0795      	lsls	r5, r2, #30
 800192c:	d502      	bpl.n	8001934 <HAL_RCC_OscConfig+0x1f0>
 800192e:	68e2      	ldr	r2, [r4, #12]
 8001930:	2a01      	cmp	r2, #1
 8001932:	d1f0      	bne.n	8001916 <HAL_RCC_OscConfig+0x1d2>
 8001934:	4935      	ldr	r1, [pc, #212]	; (8001a0c <HAL_RCC_OscConfig+0x2c8>)
 8001936:	6920      	ldr	r0, [r4, #16]
 8001938:	680a      	ldr	r2, [r1, #0]
 800193a:	f022 02f8 	bic.w	r2, r2, #248	; 0xf8
 800193e:	ea42 02c0 	orr.w	r2, r2, r0, lsl #3
 8001942:	600a      	str	r2, [r1, #0]
 8001944:	071a      	lsls	r2, r3, #28
 8001946:	d585      	bpl.n	8001854 <HAL_RCC_OscConfig+0x110>
 8001948:	e76e      	b.n	8001828 <HAL_RCC_OscConfig+0xe4>
 800194a:	4a32      	ldr	r2, [pc, #200]	; (8001a14 <HAL_RCC_OscConfig+0x2d0>)
 800194c:	4d2f      	ldr	r5, [pc, #188]	; (8001a0c <HAL_RCC_OscConfig+0x2c8>)
 800194e:	6013      	str	r3, [r2, #0]
 8001950:	f7ff fac4 	bl	8000edc <HAL_GetTick>
 8001954:	4606      	mov	r6, r0
 8001956:	e004      	b.n	8001962 <HAL_RCC_OscConfig+0x21e>
 8001958:	f7ff fac0 	bl	8000edc <HAL_GetTick>
 800195c:	1b80      	subs	r0, r0, r6
 800195e:	2802      	cmp	r0, #2
 8001960:	d837      	bhi.n	80019d2 <HAL_RCC_OscConfig+0x28e>
 8001962:	6f6b      	ldr	r3, [r5, #116]	; 0x74
 8001964:	079f      	lsls	r7, r3, #30
 8001966:	d4f7      	bmi.n	8001958 <HAL_RCC_OscConfig+0x214>
 8001968:	e773      	b.n	8001852 <HAL_RCC_OscConfig+0x10e>
 800196a:	9301      	str	r3, [sp, #4]
 800196c:	6c13      	ldr	r3, [r2, #64]	; 0x40
 800196e:	f043 5380 	orr.w	r3, r3, #268435456	; 0x10000000
 8001972:	6413      	str	r3, [r2, #64]	; 0x40
 8001974:	6c13      	ldr	r3, [r2, #64]	; 0x40
 8001976:	f003 5380 	and.w	r3, r3, #268435456	; 0x10000000
 800197a:	9301      	str	r3, [sp, #4]
 800197c:	9b01      	ldr	r3, [sp, #4]
 800197e:	2601      	movs	r6, #1
 8001980:	e771      	b.n	8001866 <HAL_RCC_OscConfig+0x122>
 8001982:	684a      	ldr	r2, [r1, #4]
 8001984:	0256      	lsls	r6, r2, #9
 8001986:	f57f aef8 	bpl.w	800177a <HAL_RCC_OscConfig+0x36>
 800198a:	e7bb      	b.n	8001904 <HAL_RCC_OscConfig+0x1c0>
 800198c:	4a1f      	ldr	r2, [pc, #124]	; (8001a0c <HAL_RCC_OscConfig+0x2c8>)
 800198e:	6813      	ldr	r3, [r2, #0]
 8001990:	f443 3380 	orr.w	r3, r3, #65536	; 0x10000
 8001994:	6013      	str	r3, [r2, #0]
 8001996:	f7ff faa1 	bl	8000edc <HAL_GetTick>
 800199a:	4d1c      	ldr	r5, [pc, #112]	; (8001a0c <HAL_RCC_OscConfig+0x2c8>)
 800199c:	4606      	mov	r6, r0
 800199e:	e004      	b.n	80019aa <HAL_RCC_OscConfig+0x266>
 80019a0:	f7ff fa9c 	bl	8000edc <HAL_GetTick>
 80019a4:	1b80      	subs	r0, r0, r6
 80019a6:	2864      	cmp	r0, #100	; 0x64
 80019a8:	d813      	bhi.n	80019d2 <HAL_RCC_OscConfig+0x28e>
 80019aa:	682b      	ldr	r3, [r5, #0]
 80019ac:	0398      	lsls	r0, r3, #14
 80019ae:	d5f7      	bpl.n	80019a0 <HAL_RCC_OscConfig+0x25c>
 80019b0:	e705      	b.n	80017be <HAL_RCC_OscConfig+0x7a>
 80019b2:	682a      	ldr	r2, [r5, #0]
 80019b4:	f442 7280 	orr.w	r2, r2, #256	; 0x100
 80019b8:	602a      	str	r2, [r5, #0]
 80019ba:	f7ff fa8f 	bl	8000edc <HAL_GetTick>
 80019be:	4607      	mov	r7, r0
 80019c0:	682b      	ldr	r3, [r5, #0]
 80019c2:	05da      	lsls	r2, r3, #23
 80019c4:	f53f af54 	bmi.w	8001870 <HAL_RCC_OscConfig+0x12c>
 80019c8:	f7ff fa88 	bl	8000edc <HAL_GetTick>
 80019cc:	1bc0      	subs	r0, r0, r7
 80019ce:	2802      	cmp	r0, #2
 80019d0:	d9f6      	bls.n	80019c0 <HAL_RCC_OscConfig+0x27c>
 80019d2:	2003      	movs	r0, #3
 80019d4:	b002      	add	sp, #8
 80019d6:	e8bd 81f0 	ldmia.w	sp!, {r4, r5, r6, r7, r8, pc}
 80019da:	4a0c      	ldr	r2, [pc, #48]	; (8001a0c <HAL_RCC_OscConfig+0x2c8>)
 80019dc:	6f13      	ldr	r3, [r2, #112]	; 0x70
 80019de:	f043 0301 	orr.w	r3, r3, #1
 80019e2:	6713      	str	r3, [r2, #112]	; 0x70
 80019e4:	f7ff fa7a 	bl	8000edc <HAL_GetTick>
 80019e8:	4d08      	ldr	r5, [pc, #32]	; (8001a0c <HAL_RCC_OscConfig+0x2c8>)
 80019ea:	4680      	mov	r8, r0
 80019ec:	f241 3788 	movw	r7, #5000	; 0x1388
 80019f0:	e005      	b.n	80019fe <HAL_RCC_OscConfig+0x2ba>
 80019f2:	f7ff fa73 	bl	8000edc <HAL_GetTick>
 80019f6:	eba0 0008 	sub.w	r0, r0, r8
 80019fa:	42b8      	cmp	r0, r7
 80019fc:	d8e9      	bhi.n	80019d2 <HAL_RCC_OscConfig+0x28e>
 80019fe:	6f2b      	ldr	r3, [r5, #112]	; 0x70
 8001a00:	079b      	lsls	r3, r3, #30
 8001a02:	d5f6      	bpl.n	80019f2 <HAL_RCC_OscConfig+0x2ae>
 8001a04:	2e00      	cmp	r6, #0
 8001a06:	f43f af59 	beq.w	80018bc <HAL_RCC_OscConfig+0x178>
 8001a0a:	e029      	b.n	8001a60 <HAL_RCC_OscConfig+0x31c>
 8001a0c:	40023800 	.word	0x40023800
 8001a10:	42470000 	.word	0x42470000
 8001a14:	42470e80 	.word	0x42470e80
 8001a18:	40007000 	.word	0x40007000
 8001a1c:	42470060 	.word	0x42470060
 8001a20:	4a2f      	ldr	r2, [pc, #188]	; (8001ae0 <HAL_RCC_OscConfig+0x39c>)
 8001a22:	4d30      	ldr	r5, [pc, #192]	; (8001ae4 <HAL_RCC_OscConfig+0x3a0>)
 8001a24:	6013      	str	r3, [r2, #0]
 8001a26:	f7ff fa59 	bl	8000edc <HAL_GetTick>
 8001a2a:	4606      	mov	r6, r0
 8001a2c:	e004      	b.n	8001a38 <HAL_RCC_OscConfig+0x2f4>
 8001a2e:	f7ff fa55 	bl	8000edc <HAL_GetTick>
 8001a32:	1b80      	subs	r0, r0, r6
 8001a34:	2802      	cmp	r0, #2
 8001a36:	d8cc      	bhi.n	80019d2 <HAL_RCC_OscConfig+0x28e>
 8001a38:	682b      	ldr	r3, [r5, #0]
 8001a3a:	0799      	lsls	r1, r3, #30
 8001a3c:	d4f7      	bmi.n	8001a2e <HAL_RCC_OscConfig+0x2ea>
 8001a3e:	6823      	ldr	r3, [r4, #0]
 8001a40:	e6f0      	b.n	8001824 <HAL_RCC_OscConfig+0xe0>
 8001a42:	684a      	ldr	r2, [r1, #4]
 8001a44:	0256      	lsls	r6, r2, #9
 8001a46:	f53f aed0 	bmi.w	80017ea <HAL_RCC_OscConfig+0xa6>
 8001a4a:	e76c      	b.n	8001926 <HAL_RCC_OscConfig+0x1e2>
 8001a4c:	4b25      	ldr	r3, [pc, #148]	; (8001ae4 <HAL_RCC_OscConfig+0x3a0>)
 8001a4e:	681a      	ldr	r2, [r3, #0]
 8001a50:	f442 2280 	orr.w	r2, r2, #262144	; 0x40000
 8001a54:	601a      	str	r2, [r3, #0]
 8001a56:	681a      	ldr	r2, [r3, #0]
 8001a58:	f442 3280 	orr.w	r2, r2, #65536	; 0x10000
 8001a5c:	601a      	str	r2, [r3, #0]
 8001a5e:	e79a      	b.n	8001996 <HAL_RCC_OscConfig+0x252>
 8001a60:	4a20      	ldr	r2, [pc, #128]	; (8001ae4 <HAL_RCC_OscConfig+0x3a0>)
 8001a62:	6c13      	ldr	r3, [r2, #64]	; 0x40
 8001a64:	f023 5380 	bic.w	r3, r3, #268435456	; 0x10000000
 8001a68:	6413      	str	r3, [r2, #64]	; 0x40
 8001a6a:	e727      	b.n	80018bc <HAL_RCC_OscConfig+0x178>
 8001a6c:	4b1d      	ldr	r3, [pc, #116]	; (8001ae4 <HAL_RCC_OscConfig+0x3a0>)
 8001a6e:	6f1a      	ldr	r2, [r3, #112]	; 0x70
 8001a70:	f042 0204 	orr.w	r2, r2, #4
 8001a74:	671a      	str	r2, [r3, #112]	; 0x70
 8001a76:	6f1a      	ldr	r2, [r3, #112]	; 0x70
 8001a78:	f042 0201 	orr.w	r2, r2, #1
 8001a7c:	671a      	str	r2, [r3, #112]	; 0x70
 8001a7e:	e7b1      	b.n	80019e4 <HAL_RCC_OscConfig+0x2a0>
 8001a80:	f7ff fa2c 	bl	8000edc <HAL_GetTick>
 8001a84:	4606      	mov	r6, r0
 8001a86:	e004      	b.n	8001a92 <HAL_RCC_OscConfig+0x34e>
 8001a88:	f7ff fa28 	bl	8000edc <HAL_GetTick>
 8001a8c:	1b80      	subs	r0, r0, r6
 8001a8e:	2802      	cmp	r0, #2
 8001a90:	d89f      	bhi.n	80019d2 <HAL_RCC_OscConfig+0x28e>
 8001a92:	682b      	ldr	r3, [r5, #0]
 8001a94:	0199      	lsls	r1, r3, #6
 8001a96:	d4f7      	bmi.n	8001a88 <HAL_RCC_OscConfig+0x344>
 8001a98:	e9d4 3207 	ldrd	r3, r2, [r4, #28]
 8001a9c:	6a66      	ldr	r6, [r4, #36]	; 0x24
 8001a9e:	6ae0      	ldr	r0, [r4, #44]	; 0x2c
 8001aa0:	6b21      	ldr	r1, [r4, #48]	; 0x30
 8001aa2:	4313      	orrs	r3, r2
 8001aa4:	6aa2      	ldr	r2, [r4, #40]	; 0x28
 8001aa6:	4c0f      	ldr	r4, [pc, #60]	; (8001ae4 <HAL_RCC_OscConfig+0x3a0>)
 8001aa8:	ea43 1386 	orr.w	r3, r3, r6, lsl #6
 8001aac:	ea43 6300 	orr.w	r3, r3, r0, lsl #24
 8001ab0:	0852      	lsrs	r2, r2, #1
 8001ab2:	ea43 7301 	orr.w	r3, r3, r1, lsl #28
 8001ab6:	3a01      	subs	r2, #1
 8001ab8:	490b      	ldr	r1, [pc, #44]	; (8001ae8 <HAL_RCC_OscConfig+0x3a4>)
 8001aba:	ea43 4302 	orr.w	r3, r3, r2, lsl #16
 8001abe:	2201      	movs	r2, #1
 8001ac0:	606b      	str	r3, [r5, #4]
 8001ac2:	600a      	str	r2, [r1, #0]
 8001ac4:	f7ff fa0a 	bl	8000edc <HAL_GetTick>
 8001ac8:	4605      	mov	r5, r0
 8001aca:	e005      	b.n	8001ad8 <HAL_RCC_OscConfig+0x394>
 8001acc:	f7ff fa06 	bl	8000edc <HAL_GetTick>
 8001ad0:	1b40      	subs	r0, r0, r5
 8001ad2:	2802      	cmp	r0, #2
 8001ad4:	f63f af7d 	bhi.w	80019d2 <HAL_RCC_OscConfig+0x28e>
 8001ad8:	6823      	ldr	r3, [r4, #0]
 8001ada:	019a      	lsls	r2, r3, #6
 8001adc:	d5f6      	bpl.n	8001acc <HAL_RCC_OscConfig+0x388>
 8001ade:	e709      	b.n	80018f4 <HAL_RCC_OscConfig+0x1b0>
 8001ae0:	42470000 	.word	0x42470000
 8001ae4:	40023800 	.word	0x40023800
 8001ae8:	42470060 	.word	0x42470060

08001aec <HAL_UART_Init>:
 8001aec:	2800      	cmp	r0, #0
 8001aee:	f000 8104 	beq.w	8001cfa <HAL_UART_Init+0x20e>
 8001af2:	e92d 43f8 	stmdb	sp!, {r3, r4, r5, r6, r7, r8, r9, lr}
 8001af6:	f890 3039 	ldrb.w	r3, [r0, #57]	; 0x39
 8001afa:	4604      	mov	r4, r0
 8001afc:	f003 02ff 	and.w	r2, r3, #255	; 0xff
 8001b00:	2b00      	cmp	r3, #0
 8001b02:	f000 80f5 	beq.w	8001cf0 <HAL_UART_Init+0x204>
 8001b06:	6823      	ldr	r3, [r4, #0]
 8001b08:	6926      	ldr	r6, [r4, #16]
 8001b0a:	2224      	movs	r2, #36	; 0x24
 8001b0c:	f884 2039 	strb.w	r2, [r4, #57]	; 0x39
 8001b10:	68d8      	ldr	r0, [r3, #12]
 8001b12:	f420 5000 	bic.w	r0, r0, #8192	; 0x2000
 8001b16:	e9d4 2502 	ldrd	r2, r5, [r4, #8]
 8001b1a:	60d8      	str	r0, [r3, #12]
 8001b1c:	6919      	ldr	r1, [r3, #16]
 8001b1e:	69e0      	ldr	r0, [r4, #28]
 8001b20:	f421 5140 	bic.w	r1, r1, #12288	; 0x3000
 8001b24:	4329      	orrs	r1, r5
 8001b26:	6119      	str	r1, [r3, #16]
 8001b28:	68d9      	ldr	r1, [r3, #12]
 8001b2a:	6965      	ldr	r5, [r4, #20]
 8001b2c:	4332      	orrs	r2, r6
 8001b2e:	f421 4116 	bic.w	r1, r1, #38400	; 0x9600
 8001b32:	432a      	orrs	r2, r5
 8001b34:	f021 010c 	bic.w	r1, r1, #12
 8001b38:	4302      	orrs	r2, r0
 8001b3a:	430a      	orrs	r2, r1
 8001b3c:	60da      	str	r2, [r3, #12]
 8001b3e:	695a      	ldr	r2, [r3, #20]
 8001b40:	69a1      	ldr	r1, [r4, #24]
 8001b42:	f422 7240 	bic.w	r2, r2, #768	; 0x300
 8001b46:	430a      	orrs	r2, r1
 8001b48:	f5b0 4f00 	cmp.w	r0, #32768	; 0x8000
 8001b4c:	615a      	str	r2, [r3, #20]
 8001b4e:	4aaa      	ldr	r2, [pc, #680]	; (8001df8 <HAL_UART_Init+0x30c>)
 8001b50:	d071      	beq.n	8001c36 <HAL_UART_Init+0x14a>
 8001b52:	4293      	cmp	r3, r2
 8001b54:	f000 80d3 	beq.w	8001cfe <HAL_UART_Init+0x212>
 8001b58:	f502 6280 	add.w	r2, r2, #1024	; 0x400
 8001b5c:	4293      	cmp	r3, r2
 8001b5e:	f000 80ce 	beq.w	8001cfe <HAL_UART_Init+0x212>
 8001b62:	f7ff fd77 	bl	8001654 <HAL_RCC_GetPCLK1Freq>
 8001b66:	4fa5      	ldr	r7, [pc, #660]	; (8001dfc <HAL_UART_Init+0x310>)
 8001b68:	6863      	ldr	r3, [r4, #4]
 8001b6a:	eb00 0080 	add.w	r0, r0, r0, lsl #2
 8001b6e:	eb00 0080 	add.w	r0, r0, r0, lsl #2
 8001b72:	009b      	lsls	r3, r3, #2
 8001b74:	fbb0 f3f3 	udiv	r3, r0, r3
 8001b78:	fba7 2303 	umull	r2, r3, r7, r3
 8001b7c:	095b      	lsrs	r3, r3, #5
 8001b7e:	011d      	lsls	r5, r3, #4
 8001b80:	f7ff fd68 	bl	8001654 <HAL_RCC_GetPCLK1Freq>
 8001b84:	6866      	ldr	r6, [r4, #4]
 8001b86:	eb00 0080 	add.w	r0, r0, r0, lsl #2
 8001b8a:	eb00 0080 	add.w	r0, r0, r0, lsl #2
 8001b8e:	00b6      	lsls	r6, r6, #2
 8001b90:	fbb0 f6f6 	udiv	r6, r0, r6
 8001b94:	f7ff fd5e 	bl	8001654 <HAL_RCC_GetPCLK1Freq>
 8001b98:	6863      	ldr	r3, [r4, #4]
 8001b9a:	eb00 0080 	add.w	r0, r0, r0, lsl #2
 8001b9e:	eb00 0080 	add.w	r0, r0, r0, lsl #2
 8001ba2:	009b      	lsls	r3, r3, #2
 8001ba4:	fbb0 f3f3 	udiv	r3, r0, r3
 8001ba8:	fba7 2303 	umull	r2, r3, r7, r3
 8001bac:	095b      	lsrs	r3, r3, #5
 8001bae:	f04f 0964 	mov.w	r9, #100	; 0x64
 8001bb2:	fb09 6313 	mls	r3, r9, r3, r6
 8001bb6:	011b      	lsls	r3, r3, #4
 8001bb8:	3332      	adds	r3, #50	; 0x32
 8001bba:	fba7 2303 	umull	r2, r3, r7, r3
 8001bbe:	095b      	lsrs	r3, r3, #5
 8001bc0:	f003 06f0 	and.w	r6, r3, #240	; 0xf0
 8001bc4:	f7ff fd46 	bl	8001654 <HAL_RCC_GetPCLK1Freq>
 8001bc8:	6862      	ldr	r2, [r4, #4]
 8001bca:	eb00 0080 	add.w	r0, r0, r0, lsl #2
 8001bce:	eb00 0080 	add.w	r0, r0, r0, lsl #2
 8001bd2:	0093      	lsls	r3, r2, #2
 8001bd4:	fbb0 f8f3 	udiv	r8, r0, r3
 8001bd8:	f7ff fd3c 	bl	8001654 <HAL_RCC_GetPCLK1Freq>
 8001bdc:	e9d4 2100 	ldrd	r2, r1, [r4]
 8001be0:	eb00 0080 	add.w	r0, r0, r0, lsl #2
 8001be4:	008b      	lsls	r3, r1, #2
 8001be6:	eb00 0080 	add.w	r0, r0, r0, lsl #2
 8001bea:	fbb0 f3f3 	udiv	r3, r0, r3
 8001bee:	fba7 1303 	umull	r1, r3, r7, r3
 8001bf2:	095b      	lsrs	r3, r3, #5
 8001bf4:	fb09 8313 	mls	r3, r9, r3, r8
 8001bf8:	011b      	lsls	r3, r3, #4
 8001bfa:	3332      	adds	r3, #50	; 0x32
 8001bfc:	fba7 1303 	umull	r1, r3, r7, r3
 8001c00:	f3c3 1343 	ubfx	r3, r3, #5, #4
 8001c04:	4333      	orrs	r3, r6
 8001c06:	442b      	add	r3, r5
 8001c08:	6093      	str	r3, [r2, #8]
 8001c0a:	6913      	ldr	r3, [r2, #16]
 8001c0c:	f423 4390 	bic.w	r3, r3, #18432	; 0x4800
 8001c10:	6113      	str	r3, [r2, #16]
 8001c12:	6953      	ldr	r3, [r2, #20]
 8001c14:	f023 032a 	bic.w	r3, r3, #42	; 0x2a
 8001c18:	6153      	str	r3, [r2, #20]
 8001c1a:	68d3      	ldr	r3, [r2, #12]
 8001c1c:	2500      	movs	r5, #0
 8001c1e:	2120      	movs	r1, #32
 8001c20:	f443 5300 	orr.w	r3, r3, #8192	; 0x2000
 8001c24:	60d3      	str	r3, [r2, #12]
 8001c26:	4628      	mov	r0, r5
 8001c28:	63e5      	str	r5, [r4, #60]	; 0x3c
 8001c2a:	f884 1039 	strb.w	r1, [r4, #57]	; 0x39
 8001c2e:	f884 103a 	strb.w	r1, [r4, #58]	; 0x3a
 8001c32:	e8bd 83f8 	ldmia.w	sp!, {r3, r4, r5, r6, r7, r8, r9, pc}
 8001c36:	4293      	cmp	r3, r2
 8001c38:	f000 809f 	beq.w	8001d7a <HAL_UART_Init+0x28e>
 8001c3c:	f502 6280 	add.w	r2, r2, #1024	; 0x400
 8001c40:	4293      	cmp	r3, r2
 8001c42:	f000 809a 	beq.w	8001d7a <HAL_UART_Init+0x28e>
 8001c46:	f7ff fd05 	bl	8001654 <HAL_RCC_GetPCLK1Freq>
 8001c4a:	4f6c      	ldr	r7, [pc, #432]	; (8001dfc <HAL_UART_Init+0x310>)
 8001c4c:	6863      	ldr	r3, [r4, #4]
 8001c4e:	eb00 0080 	add.w	r0, r0, r0, lsl #2
 8001c52:	eb00 0080 	add.w	r0, r0, r0, lsl #2
 8001c56:	005b      	lsls	r3, r3, #1
 8001c58:	fbb0 f3f3 	udiv	r3, r0, r3
 8001c5c:	fba7 2303 	umull	r2, r3, r7, r3
 8001c60:	095b      	lsrs	r3, r3, #5
 8001c62:	011e      	lsls	r6, r3, #4
 8001c64:	f7ff fcf6 	bl	8001654 <HAL_RCC_GetPCLK1Freq>
 8001c68:	6865      	ldr	r5, [r4, #4]
 8001c6a:	eb00 0080 	add.w	r0, r0, r0, lsl #2
 8001c6e:	eb00 0080 	add.w	r0, r0, r0, lsl #2
 8001c72:	006d      	lsls	r5, r5, #1
 8001c74:	fbb0 f5f5 	udiv	r5, r0, r5
 8001c78:	f7ff fcec 	bl	8001654 <HAL_RCC_GetPCLK1Freq>
 8001c7c:	6863      	ldr	r3, [r4, #4]
 8001c7e:	eb00 0080 	add.w	r0, r0, r0, lsl #2
 8001c82:	eb00 0080 	add.w	r0, r0, r0, lsl #2
 8001c86:	005b      	lsls	r3, r3, #1
 8001c88:	fbb0 f3f3 	udiv	r3, r0, r3
 8001c8c:	fba7 2303 	umull	r2, r3, r7, r3
 8001c90:	095b      	lsrs	r3, r3, #5
 8001c92:	f04f 0964 	mov.w	r9, #100	; 0x64
 8001c96:	fb09 5313 	mls	r3, r9, r3, r5
 8001c9a:	00db      	lsls	r3, r3, #3
 8001c9c:	3332      	adds	r3, #50	; 0x32
 8001c9e:	fba7 2303 	umull	r2, r3, r7, r3
 8001ca2:	091b      	lsrs	r3, r3, #4
 8001ca4:	f403 75f8 	and.w	r5, r3, #496	; 0x1f0
 8001ca8:	f7ff fcd4 	bl	8001654 <HAL_RCC_GetPCLK1Freq>
 8001cac:	6862      	ldr	r2, [r4, #4]
 8001cae:	eb00 0080 	add.w	r0, r0, r0, lsl #2
 8001cb2:	eb00 0080 	add.w	r0, r0, r0, lsl #2
 8001cb6:	0053      	lsls	r3, r2, #1
 8001cb8:	fbb0 f8f3 	udiv	r8, r0, r3
 8001cbc:	f7ff fcca 	bl	8001654 <HAL_RCC_GetPCLK1Freq>
 8001cc0:	e9d4 2100 	ldrd	r2, r1, [r4]
 8001cc4:	eb00 0080 	add.w	r0, r0, r0, lsl #2
 8001cc8:	004b      	lsls	r3, r1, #1
 8001cca:	eb00 0080 	add.w	r0, r0, r0, lsl #2
 8001cce:	fbb0 f3f3 	udiv	r3, r0, r3
 8001cd2:	fba7 1303 	umull	r1, r3, r7, r3
 8001cd6:	095b      	lsrs	r3, r3, #5
 8001cd8:	fb09 8313 	mls	r3, r9, r3, r8
 8001cdc:	00db      	lsls	r3, r3, #3
 8001cde:	3332      	adds	r3, #50	; 0x32
 8001ce0:	fba7 1303 	umull	r1, r3, r7, r3
 8001ce4:	f3c3 1342 	ubfx	r3, r3, #5, #3
 8001ce8:	4433      	add	r3, r6
 8001cea:	442b      	add	r3, r5
 8001cec:	6093      	str	r3, [r2, #8]
 8001cee:	e78c      	b.n	8001c0a <HAL_UART_Init+0x11e>
 8001cf0:	f880 2038 	strb.w	r2, [r0, #56]	; 0x38
 8001cf4:	f7fe ffd4 	bl	8000ca0 <HAL_UART_MspInit>
 8001cf8:	e705      	b.n	8001b06 <HAL_UART_Init+0x1a>
 8001cfa:	2001      	movs	r0, #1
 8001cfc:	4770      	bx	lr
 8001cfe:	f7ff fcb9 	bl	8001674 <HAL_RCC_GetPCLK2Freq>
 8001d02:	4f3e      	ldr	r7, [pc, #248]	; (8001dfc <HAL_UART_Init+0x310>)
 8001d04:	6863      	ldr	r3, [r4, #4]
 8001d06:	eb00 0080 	add.w	r0, r0, r0, lsl #2
 8001d0a:	eb00 0080 	add.w	r0, r0, r0, lsl #2
 8001d0e:	009b      	lsls	r3, r3, #2
 8001d10:	fbb0 f3f3 	udiv	r3, r0, r3
 8001d14:	fba7 2303 	umull	r2, r3, r7, r3
 8001d18:	095b      	lsrs	r3, r3, #5
 8001d1a:	011d      	lsls	r5, r3, #4
 8001d1c:	f7ff fcaa 	bl	8001674 <HAL_RCC_GetPCLK2Freq>
 8001d20:	6866      	ldr	r6, [r4, #4]
 8001d22:	eb00 0080 	add.w	r0, r0, r0, lsl #2
 8001d26:	eb00 0080 	add.w	r0, r0, r0, lsl #2
 8001d2a:	00b6      	lsls	r6, r6, #2
 8001d2c:	fbb0 f6f6 	udiv	r6, r0, r6
 8001d30:	f7ff fca0 	bl	8001674 <HAL_RCC_GetPCLK2Freq>
 8001d34:	6863      	ldr	r3, [r4, #4]
 8001d36:	eb00 0080 	add.w	r0, r0, r0, lsl #2
 8001d3a:	eb00 0080 	add.w	r0, r0, r0, lsl #2
 8001d3e:	009b      	lsls	r3, r3, #2
 8001d40:	fbb0 f3f3 	udiv	r3, r0, r3
 8001d44:	fba7 2303 	umull	r2, r3, r7, r3
 8001d48:	f04f 0964 	mov.w	r9, #100	; 0x64
 8001d4c:	095b      	lsrs	r3, r3, #5
 8001d4e:	fb09 6313 	mls	r3, r9, r3, r6
 8001d52:	011b      	lsls	r3, r3, #4
 8001d54:	3332      	adds	r3, #50	; 0x32
 8001d56:	fba7 2303 	umull	r2, r3, r7, r3
 8001d5a:	095b      	lsrs	r3, r3, #5
 8001d5c:	f003 06f0 	and.w	r6, r3, #240	; 0xf0
 8001d60:	f7ff fc88 	bl	8001674 <HAL_RCC_GetPCLK2Freq>
 8001d64:	6862      	ldr	r2, [r4, #4]
 8001d66:	eb00 0080 	add.w	r0, r0, r0, lsl #2
 8001d6a:	0093      	lsls	r3, r2, #2
 8001d6c:	eb00 0080 	add.w	r0, r0, r0, lsl #2
 8001d70:	fbb0 f8f3 	udiv	r8, r0, r3
 8001d74:	f7ff fc7e 	bl	8001674 <HAL_RCC_GetPCLK2Freq>
 8001d78:	e730      	b.n	8001bdc <HAL_UART_Init+0xf0>
 8001d7a:	f7ff fc7b 	bl	8001674 <HAL_RCC_GetPCLK2Freq>
 8001d7e:	4f1f      	ldr	r7, [pc, #124]	; (8001dfc <HAL_UART_Init+0x310>)
 8001d80:	6863      	ldr	r3, [r4, #4]
 8001d82:	eb00 0080 	add.w	r0, r0, r0, lsl #2
 8001d86:	eb00 0080 	add.w	r0, r0, r0, lsl #2
 8001d8a:	005b      	lsls	r3, r3, #1
 8001d8c:	fbb0 f3f3 	udiv	r3, r0, r3
 8001d90:	fba7 2303 	umull	r2, r3, r7, r3
 8001d94:	095b      	lsrs	r3, r3, #5
 8001d96:	011e      	lsls	r6, r3, #4
 8001d98:	f7ff fc6c 	bl	8001674 <HAL_RCC_GetPCLK2Freq>
 8001d9c:	6865      	ldr	r5, [r4, #4]
 8001d9e:	eb00 0080 	add.w	r0, r0, r0, lsl #2
 8001da2:	eb00 0080 	add.w	r0, r0, r0, lsl #2
 8001da6:	006d      	lsls	r5, r5, #1
 8001da8:	fbb0 f5f5 	udiv	r5, r0, r5
 8001dac:	f7ff fc62 	bl	8001674 <HAL_RCC_GetPCLK2Freq>
 8001db0:	6863      	ldr	r3, [r4, #4]
 8001db2:	eb00 0080 	add.w	r0, r0, r0, lsl #2
 8001db6:	eb00 0080 	add.w	r0, r0, r0, lsl #2
 8001dba:	005b      	lsls	r3, r3, #1
 8001dbc:	fbb0 f3f3 	udiv	r3, r0, r3
 8001dc0:	fba7 2303 	umull	r2, r3, r7, r3
 8001dc4:	f04f 0964 	mov.w	r9, #100	; 0x64
 8001dc8:	095b      	lsrs	r3, r3, #5
 8001dca:	fb09 5313 	mls	r3, r9, r3, r5
 8001dce:	00db      	lsls	r3, r3, #3
 8001dd0:	3332      	adds	r3, #50	; 0x32
 8001dd2:	fba7 2303 	umull	r2, r3, r7, r3
 8001dd6:	091b      	lsrs	r3, r3, #4
 8001dd8:	f403 75f8 	and.w	r5, r3, #496	; 0x1f0
 8001ddc:	f7ff fc4a 	bl	8001674 <HAL_RCC_GetPCLK2Freq>
 8001de0:	6862      	ldr	r2, [r4, #4]
 8001de2:	eb00 0080 	add.w	r0, r0, r0, lsl #2
 8001de6:	0053      	lsls	r3, r2, #1
 8001de8:	eb00 0080 	add.w	r0, r0, r0, lsl #2
 8001dec:	fbb0 f8f3 	udiv	r8, r0, r3
 8001df0:	f7ff fc40 	bl	8001674 <HAL_RCC_GetPCLK2Freq>
 8001df4:	e764      	b.n	8001cc0 <HAL_UART_Init+0x1d4>
 8001df6:	bf00      	nop
 8001df8:	40011000 	.word	0x40011000
 8001dfc:	51eb851f 	.word	0x51eb851f

08001e00 <HAL_UART_Transmit>:
 8001e00:	b5f0      	push	{r4, r5, r6, r7, lr}
 8001e02:	460e      	mov	r6, r1
 8001e04:	f890 1039 	ldrb.w	r1, [r0, #57]	; 0x39
 8001e08:	2920      	cmp	r1, #32
 8001e0a:	b083      	sub	sp, #12
 8001e0c:	d12d      	bne.n	8001e6a <HAL_UART_Transmit+0x6a>
 8001e0e:	2e00      	cmp	r6, #0
 8001e10:	d02e      	beq.n	8001e70 <HAL_UART_Transmit+0x70>
 8001e12:	9201      	str	r2, [sp, #4]
 8001e14:	b362      	cbz	r2, 8001e70 <HAL_UART_Transmit+0x70>
 8001e16:	461f      	mov	r7, r3
 8001e18:	f890 3038 	ldrb.w	r3, [r0, #56]	; 0x38
 8001e1c:	2b01      	cmp	r3, #1
 8001e1e:	4604      	mov	r4, r0
 8001e20:	d023      	beq.n	8001e6a <HAL_UART_Transmit+0x6a>
 8001e22:	2300      	movs	r3, #0
 8001e24:	63c3      	str	r3, [r0, #60]	; 0x3c
 8001e26:	2101      	movs	r1, #1
 8001e28:	2321      	movs	r3, #33	; 0x21
 8001e2a:	f880 1038 	strb.w	r1, [r0, #56]	; 0x38
 8001e2e:	f880 3039 	strb.w	r3, [r0, #57]	; 0x39
 8001e32:	f7ff f853 	bl	8000edc <HAL_GetTick>
 8001e36:	9a01      	ldr	r2, [sp, #4]
 8001e38:	84a2      	strh	r2, [r4, #36]	; 0x24
 8001e3a:	84e2      	strh	r2, [r4, #38]	; 0x26
 8001e3c:	6822      	ldr	r2, [r4, #0]
 8001e3e:	4605      	mov	r5, r0
 8001e40:	8ce3      	ldrh	r3, [r4, #38]	; 0x26
 8001e42:	b29b      	uxth	r3, r3
 8001e44:	2b00      	cmp	r3, #0
 8001e46:	d039      	beq.n	8001ebc <HAL_UART_Transmit+0xbc>
 8001e48:	8ce0      	ldrh	r0, [r4, #38]	; 0x26
 8001e4a:	68a1      	ldr	r1, [r4, #8]
 8001e4c:	3801      	subs	r0, #1
 8001e4e:	b280      	uxth	r0, r0
 8001e50:	f5b1 5f80 	cmp.w	r1, #4096	; 0x1000
 8001e54:	84e0      	strh	r0, [r4, #38]	; 0x26
 8001e56:	d019      	beq.n	8001e8c <HAL_UART_Transmit+0x8c>
 8001e58:	1c78      	adds	r0, r7, #1
 8001e5a:	d13b      	bne.n	8001ed4 <HAL_UART_Transmit+0xd4>
 8001e5c:	6810      	ldr	r0, [r2, #0]
 8001e5e:	0601      	lsls	r1, r0, #24
 8001e60:	d5fc      	bpl.n	8001e5c <HAL_UART_Transmit+0x5c>
 8001e62:	7833      	ldrb	r3, [r6, #0]
 8001e64:	6053      	str	r3, [r2, #4]
 8001e66:	3601      	adds	r6, #1
 8001e68:	e7ea      	b.n	8001e40 <HAL_UART_Transmit+0x40>
 8001e6a:	2002      	movs	r0, #2
 8001e6c:	b003      	add	sp, #12
 8001e6e:	bdf0      	pop	{r4, r5, r6, r7, pc}
 8001e70:	2001      	movs	r0, #1
 8001e72:	b003      	add	sp, #12
 8001e74:	bdf0      	pop	{r4, r5, r6, r7, pc}
 8001e76:	6813      	ldr	r3, [r2, #0]
 8001e78:	061b      	lsls	r3, r3, #24
 8001e7a:	d40c      	bmi.n	8001e96 <HAL_UART_Transmit+0x96>
 8001e7c:	2f00      	cmp	r7, #0
 8001e7e:	d033      	beq.n	8001ee8 <HAL_UART_Transmit+0xe8>
 8001e80:	f7ff f82c 	bl	8000edc <HAL_GetTick>
 8001e84:	1b40      	subs	r0, r0, r5
 8001e86:	4287      	cmp	r7, r0
 8001e88:	6822      	ldr	r2, [r4, #0]
 8001e8a:	d32d      	bcc.n	8001ee8 <HAL_UART_Transmit+0xe8>
 8001e8c:	1c78      	adds	r0, r7, #1
 8001e8e:	d1f2      	bne.n	8001e76 <HAL_UART_Transmit+0x76>
 8001e90:	6810      	ldr	r0, [r2, #0]
 8001e92:	0601      	lsls	r1, r0, #24
 8001e94:	d5fc      	bpl.n	8001e90 <HAL_UART_Transmit+0x90>
 8001e96:	8833      	ldrh	r3, [r6, #0]
 8001e98:	6921      	ldr	r1, [r4, #16]
 8001e9a:	f3c3 0308 	ubfx	r3, r3, #0, #9
 8001e9e:	6053      	str	r3, [r2, #4]
 8001ea0:	2900      	cmp	r1, #0
 8001ea2:	d1e0      	bne.n	8001e66 <HAL_UART_Transmit+0x66>
 8001ea4:	3602      	adds	r6, #2
 8001ea6:	e7cb      	b.n	8001e40 <HAL_UART_Transmit+0x40>
 8001ea8:	6813      	ldr	r3, [r2, #0]
 8001eaa:	065b      	lsls	r3, r3, #25
 8001eac:	d40b      	bmi.n	8001ec6 <HAL_UART_Transmit+0xc6>
 8001eae:	b1df      	cbz	r7, 8001ee8 <HAL_UART_Transmit+0xe8>
 8001eb0:	f7ff f814 	bl	8000edc <HAL_GetTick>
 8001eb4:	1b40      	subs	r0, r0, r5
 8001eb6:	4287      	cmp	r7, r0
 8001eb8:	6822      	ldr	r2, [r4, #0]
 8001eba:	d315      	bcc.n	8001ee8 <HAL_UART_Transmit+0xe8>
 8001ebc:	1c78      	adds	r0, r7, #1
 8001ebe:	d1f3      	bne.n	8001ea8 <HAL_UART_Transmit+0xa8>
 8001ec0:	6813      	ldr	r3, [r2, #0]
 8001ec2:	0659      	lsls	r1, r3, #25
 8001ec4:	d5fc      	bpl.n	8001ec0 <HAL_UART_Transmit+0xc0>
 8001ec6:	2320      	movs	r3, #32
 8001ec8:	2000      	movs	r0, #0
 8001eca:	f884 3039 	strb.w	r3, [r4, #57]	; 0x39
 8001ece:	f884 0038 	strb.w	r0, [r4, #56]	; 0x38
 8001ed2:	e7cb      	b.n	8001e6c <HAL_UART_Transmit+0x6c>
 8001ed4:	6813      	ldr	r3, [r2, #0]
 8001ed6:	061b      	lsls	r3, r3, #24
 8001ed8:	d4c3      	bmi.n	8001e62 <HAL_UART_Transmit+0x62>
 8001eda:	b12f      	cbz	r7, 8001ee8 <HAL_UART_Transmit+0xe8>
 8001edc:	f7fe fffe 	bl	8000edc <HAL_GetTick>
 8001ee0:	1b40      	subs	r0, r0, r5
 8001ee2:	4287      	cmp	r7, r0
 8001ee4:	6822      	ldr	r2, [r4, #0]
 8001ee6:	d2b7      	bcs.n	8001e58 <HAL_UART_Transmit+0x58>
 8001ee8:	68d3      	ldr	r3, [r2, #12]
 8001eea:	f423 73d0 	bic.w	r3, r3, #416	; 0x1a0
 8001eee:	60d3      	str	r3, [r2, #12]
 8001ef0:	6953      	ldr	r3, [r2, #20]
 8001ef2:	2120      	movs	r1, #32
 8001ef4:	f023 0301 	bic.w	r3, r3, #1
 8001ef8:	2500      	movs	r5, #0
 8001efa:	2003      	movs	r0, #3
 8001efc:	6153      	str	r3, [r2, #20]
 8001efe:	f884 1039 	strb.w	r1, [r4, #57]	; 0x39
 8001f02:	f884 5038 	strb.w	r5, [r4, #56]	; 0x38
 8001f06:	f884 103a 	strb.w	r1, [r4, #58]	; 0x3a
 8001f0a:	b003      	add	sp, #12
 8001f0c:	bdf0      	pop	{r4, r5, r6, r7, pc}
 8001f0e:	bf00      	nop

08001f10 <HAL_UART_TxCpltCallback>:
 8001f10:	4770      	bx	lr
 8001f12:	bf00      	nop

08001f14 <UART_Receive_IT.part.1>:
 8001f14:	b510      	push	{r4, lr}
 8001f16:	6884      	ldr	r4, [r0, #8]
 8001f18:	6901      	ldr	r1, [r0, #16]
 8001f1a:	6a83      	ldr	r3, [r0, #40]	; 0x28
 8001f1c:	6802      	ldr	r2, [r0, #0]
 8001f1e:	f5b4 5f80 	cmp.w	r4, #4096	; 0x1000
 8001f22:	d020      	beq.n	8001f66 <UART_Receive_IT.part.1+0x52>
 8001f24:	1c5c      	adds	r4, r3, #1
 8001f26:	6852      	ldr	r2, [r2, #4]
 8001f28:	6284      	str	r4, [r0, #40]	; 0x28
 8001f2a:	b9c9      	cbnz	r1, 8001f60 <UART_Receive_IT.part.1+0x4c>
 8001f2c:	701a      	strb	r2, [r3, #0]
 8001f2e:	8dc3      	ldrh	r3, [r0, #46]	; 0x2e
 8001f30:	3b01      	subs	r3, #1
 8001f32:	b29b      	uxth	r3, r3
 8001f34:	85c3      	strh	r3, [r0, #46]	; 0x2e
 8001f36:	b98b      	cbnz	r3, 8001f5c <UART_Receive_IT.part.1+0x48>
 8001f38:	6802      	ldr	r2, [r0, #0]
 8001f3a:	68d1      	ldr	r1, [r2, #12]
 8001f3c:	f021 0120 	bic.w	r1, r1, #32
 8001f40:	60d1      	str	r1, [r2, #12]
 8001f42:	68d1      	ldr	r1, [r2, #12]
 8001f44:	f421 7180 	bic.w	r1, r1, #256	; 0x100
 8001f48:	60d1      	str	r1, [r2, #12]
 8001f4a:	6951      	ldr	r1, [r2, #20]
 8001f4c:	2420      	movs	r4, #32
 8001f4e:	f021 0101 	bic.w	r1, r1, #1
 8001f52:	6151      	str	r1, [r2, #20]
 8001f54:	f880 403a 	strb.w	r4, [r0, #58]	; 0x3a
 8001f58:	f7fe fdb4 	bl	8000ac4 <HAL_UART_RxCpltCallback>
 8001f5c:	2000      	movs	r0, #0
 8001f5e:	bd10      	pop	{r4, pc}
 8001f60:	f002 027f 	and.w	r2, r2, #127	; 0x7f
 8001f64:	e7e2      	b.n	8001f2c <UART_Receive_IT.part.1+0x18>
 8001f66:	6852      	ldr	r2, [r2, #4]
 8001f68:	b929      	cbnz	r1, 8001f76 <UART_Receive_IT.part.1+0x62>
 8001f6a:	f3c2 0208 	ubfx	r2, r2, #0, #9
 8001f6e:	f823 2b02 	strh.w	r2, [r3], #2
 8001f72:	6283      	str	r3, [r0, #40]	; 0x28
 8001f74:	e7db      	b.n	8001f2e <UART_Receive_IT.part.1+0x1a>
 8001f76:	b2d2      	uxtb	r2, r2
 8001f78:	f823 2b01 	strh.w	r2, [r3], #1
 8001f7c:	6283      	str	r3, [r0, #40]	; 0x28
 8001f7e:	e7d6      	b.n	8001f2e <UART_Receive_IT.part.1+0x1a>

08001f80 <HAL_UART_ErrorCallback>:
 8001f80:	4770      	bx	lr
 8001f82:	bf00      	nop

08001f84 <HAL_UART_IRQHandler>:
 8001f84:	6803      	ldr	r3, [r0, #0]
 8001f86:	681a      	ldr	r2, [r3, #0]
 8001f88:	b570      	push	{r4, r5, r6, lr}
 8001f8a:	0716      	lsls	r6, r2, #28
 8001f8c:	68dd      	ldr	r5, [r3, #12]
 8001f8e:	6959      	ldr	r1, [r3, #20]
 8001f90:	4604      	mov	r4, r0
 8001f92:	d049      	beq.n	8002028 <HAL_UART_IRQHandler+0xa4>
 8001f94:	f011 0101 	ands.w	r1, r1, #1
 8001f98:	d04f      	beq.n	800203a <HAL_UART_IRQHandler+0xb6>
 8001f9a:	07d6      	lsls	r6, r2, #31
 8001f9c:	d505      	bpl.n	8001faa <HAL_UART_IRQHandler+0x26>
 8001f9e:	05e8      	lsls	r0, r5, #23
 8001fa0:	d503      	bpl.n	8001faa <HAL_UART_IRQHandler+0x26>
 8001fa2:	6be0      	ldr	r0, [r4, #60]	; 0x3c
 8001fa4:	f040 0001 	orr.w	r0, r0, #1
 8001fa8:	63e0      	str	r0, [r4, #60]	; 0x3c
 8001faa:	0756      	lsls	r6, r2, #29
 8001fac:	f002 0002 	and.w	r0, r2, #2
 8001fb0:	d575      	bpl.n	800209e <HAL_UART_IRQHandler+0x11a>
 8001fb2:	b161      	cbz	r1, 8001fce <HAL_UART_IRQHandler+0x4a>
 8001fb4:	6be1      	ldr	r1, [r4, #60]	; 0x3c
 8001fb6:	f041 0102 	orr.w	r1, r1, #2
 8001fba:	63e1      	str	r1, [r4, #60]	; 0x3c
 8001fbc:	f002 0608 	and.w	r6, r2, #8
 8001fc0:	2800      	cmp	r0, #0
 8001fc2:	d171      	bne.n	80020a8 <HAL_UART_IRQHandler+0x124>
 8001fc4:	b11e      	cbz	r6, 8001fce <HAL_UART_IRQHandler+0x4a>
 8001fc6:	6be1      	ldr	r1, [r4, #60]	; 0x3c
 8001fc8:	f041 0108 	orr.w	r1, r1, #8
 8001fcc:	63e1      	str	r1, [r4, #60]	; 0x3c
 8001fce:	6be1      	ldr	r1, [r4, #60]	; 0x3c
 8001fd0:	2900      	cmp	r1, #0
 8001fd2:	d031      	beq.n	8002038 <HAL_UART_IRQHandler+0xb4>
 8001fd4:	0696      	lsls	r6, r2, #26
 8001fd6:	d501      	bpl.n	8001fdc <HAL_UART_IRQHandler+0x58>
 8001fd8:	06a8      	lsls	r0, r5, #26
 8001fda:	d473      	bmi.n	80020c4 <HAL_UART_IRQHandler+0x140>
 8001fdc:	695d      	ldr	r5, [r3, #20]
 8001fde:	6be1      	ldr	r1, [r4, #60]	; 0x3c
 8001fe0:	0709      	lsls	r1, r1, #28
 8001fe2:	d402      	bmi.n	8001fea <HAL_UART_IRQHandler+0x66>
 8001fe4:	f015 0540 	ands.w	r5, r5, #64	; 0x40
 8001fe8:	d079      	beq.n	80020de <HAL_UART_IRQHandler+0x15a>
 8001fea:	68da      	ldr	r2, [r3, #12]
 8001fec:	f422 7290 	bic.w	r2, r2, #288	; 0x120
 8001ff0:	60da      	str	r2, [r3, #12]
 8001ff2:	695a      	ldr	r2, [r3, #20]
 8001ff4:	2120      	movs	r1, #32
 8001ff6:	f022 0201 	bic.w	r2, r2, #1
 8001ffa:	615a      	str	r2, [r3, #20]
 8001ffc:	f884 103a 	strb.w	r1, [r4, #58]	; 0x3a
 8002000:	695a      	ldr	r2, [r3, #20]
 8002002:	0652      	lsls	r2, r2, #25
 8002004:	d55a      	bpl.n	80020bc <HAL_UART_IRQHandler+0x138>
 8002006:	695a      	ldr	r2, [r3, #20]
 8002008:	6b60      	ldr	r0, [r4, #52]	; 0x34
 800200a:	f022 0240 	bic.w	r2, r2, #64	; 0x40
 800200e:	615a      	str	r2, [r3, #20]
 8002010:	2800      	cmp	r0, #0
 8002012:	d053      	beq.n	80020bc <HAL_UART_IRQHandler+0x138>
 8002014:	4b3a      	ldr	r3, [pc, #232]	; (8002100 <HAL_UART_IRQHandler+0x17c>)
 8002016:	6503      	str	r3, [r0, #80]	; 0x50
 8002018:	f7ff f870 	bl	80010fc <HAL_DMA_Abort_IT>
 800201c:	b160      	cbz	r0, 8002038 <HAL_UART_IRQHandler+0xb4>
 800201e:	6b60      	ldr	r0, [r4, #52]	; 0x34
 8002020:	e8bd 4070 	ldmia.w	sp!, {r4, r5, r6, lr}
 8002024:	6d03      	ldr	r3, [r0, #80]	; 0x50
 8002026:	4718      	bx	r3
 8002028:	0696      	lsls	r6, r2, #26
 800202a:	d509      	bpl.n	8002040 <HAL_UART_IRQHandler+0xbc>
 800202c:	06a9      	lsls	r1, r5, #26
 800202e:	d507      	bpl.n	8002040 <HAL_UART_IRQHandler+0xbc>
 8002030:	f890 303a 	ldrb.w	r3, [r0, #58]	; 0x3a
 8002034:	2b22      	cmp	r3, #34	; 0x22
 8002036:	d04e      	beq.n	80020d6 <HAL_UART_IRQHandler+0x152>
 8002038:	bd70      	pop	{r4, r5, r6, pc}
 800203a:	f415 7f90 	tst.w	r5, #288	; 0x120
 800203e:	d1ac      	bne.n	8001f9a <HAL_UART_IRQHandler+0x16>
 8002040:	0616      	lsls	r6, r2, #24
 8002042:	d40e      	bmi.n	8002062 <HAL_UART_IRQHandler+0xde>
 8002044:	0651      	lsls	r1, r2, #25
 8002046:	d5f7      	bpl.n	8002038 <HAL_UART_IRQHandler+0xb4>
 8002048:	066a      	lsls	r2, r5, #25
 800204a:	d5f5      	bpl.n	8002038 <HAL_UART_IRQHandler+0xb4>
 800204c:	68da      	ldr	r2, [r3, #12]
 800204e:	2120      	movs	r1, #32
 8002050:	f022 0240 	bic.w	r2, r2, #64	; 0x40
 8002054:	60da      	str	r2, [r3, #12]
 8002056:	4620      	mov	r0, r4
 8002058:	f884 1039 	strb.w	r1, [r4, #57]	; 0x39
 800205c:	f7ff ff58 	bl	8001f10 <HAL_UART_TxCpltCallback>
 8002060:	bd70      	pop	{r4, r5, r6, pc}
 8002062:	0628      	lsls	r0, r5, #24
 8002064:	d5ee      	bpl.n	8002044 <HAL_UART_IRQHandler+0xc0>
 8002066:	f894 2039 	ldrb.w	r2, [r4, #57]	; 0x39
 800206a:	2a21      	cmp	r2, #33	; 0x21
 800206c:	d1e4      	bne.n	8002038 <HAL_UART_IRQHandler+0xb4>
 800206e:	68a1      	ldr	r1, [r4, #8]
 8002070:	6a22      	ldr	r2, [r4, #32]
 8002072:	f5b1 5f80 	cmp.w	r1, #4096	; 0x1000
 8002076:	d037      	beq.n	80020e8 <HAL_UART_IRQHandler+0x164>
 8002078:	1c51      	adds	r1, r2, #1
 800207a:	6221      	str	r1, [r4, #32]
 800207c:	7812      	ldrb	r2, [r2, #0]
 800207e:	605a      	str	r2, [r3, #4]
 8002080:	8ce2      	ldrh	r2, [r4, #38]	; 0x26
 8002082:	3a01      	subs	r2, #1
 8002084:	b292      	uxth	r2, r2
 8002086:	84e2      	strh	r2, [r4, #38]	; 0x26
 8002088:	2a00      	cmp	r2, #0
 800208a:	d1d5      	bne.n	8002038 <HAL_UART_IRQHandler+0xb4>
 800208c:	68da      	ldr	r2, [r3, #12]
 800208e:	f022 0280 	bic.w	r2, r2, #128	; 0x80
 8002092:	60da      	str	r2, [r3, #12]
 8002094:	68da      	ldr	r2, [r3, #12]
 8002096:	f042 0240 	orr.w	r2, r2, #64	; 0x40
 800209a:	60da      	str	r2, [r3, #12]
 800209c:	bd70      	pop	{r4, r5, r6, pc}
 800209e:	b140      	cbz	r0, 80020b2 <HAL_UART_IRQHandler+0x12e>
 80020a0:	2900      	cmp	r1, #0
 80020a2:	d094      	beq.n	8001fce <HAL_UART_IRQHandler+0x4a>
 80020a4:	f002 0608 	and.w	r6, r2, #8
 80020a8:	6be1      	ldr	r1, [r4, #60]	; 0x3c
 80020aa:	f041 0104 	orr.w	r1, r1, #4
 80020ae:	63e1      	str	r1, [r4, #60]	; 0x3c
 80020b0:	e788      	b.n	8001fc4 <HAL_UART_IRQHandler+0x40>
 80020b2:	0710      	lsls	r0, r2, #28
 80020b4:	d58b      	bpl.n	8001fce <HAL_UART_IRQHandler+0x4a>
 80020b6:	2900      	cmp	r1, #0
 80020b8:	d185      	bne.n	8001fc6 <HAL_UART_IRQHandler+0x42>
 80020ba:	e788      	b.n	8001fce <HAL_UART_IRQHandler+0x4a>
 80020bc:	4620      	mov	r0, r4
 80020be:	f7ff ff5f 	bl	8001f80 <HAL_UART_ErrorCallback>
 80020c2:	bd70      	pop	{r4, r5, r6, pc}
 80020c4:	f894 203a 	ldrb.w	r2, [r4, #58]	; 0x3a
 80020c8:	2a22      	cmp	r2, #34	; 0x22
 80020ca:	d187      	bne.n	8001fdc <HAL_UART_IRQHandler+0x58>
 80020cc:	4620      	mov	r0, r4
 80020ce:	f7ff ff21 	bl	8001f14 <UART_Receive_IT.part.1>
 80020d2:	6823      	ldr	r3, [r4, #0]
 80020d4:	e782      	b.n	8001fdc <HAL_UART_IRQHandler+0x58>
 80020d6:	e8bd 4070 	ldmia.w	sp!, {r4, r5, r6, lr}
 80020da:	f7ff bf1b 	b.w	8001f14 <UART_Receive_IT.part.1>
 80020de:	4620      	mov	r0, r4
 80020e0:	f7ff ff4e 	bl	8001f80 <HAL_UART_ErrorCallback>
 80020e4:	63e5      	str	r5, [r4, #60]	; 0x3c
 80020e6:	bd70      	pop	{r4, r5, r6, pc}
 80020e8:	8811      	ldrh	r1, [r2, #0]
 80020ea:	6920      	ldr	r0, [r4, #16]
 80020ec:	f3c1 0108 	ubfx	r1, r1, #0, #9
 80020f0:	6059      	str	r1, [r3, #4]
 80020f2:	b910      	cbnz	r0, 80020fa <HAL_UART_IRQHandler+0x176>
 80020f4:	3202      	adds	r2, #2
 80020f6:	6222      	str	r2, [r4, #32]
 80020f8:	e7c2      	b.n	8002080 <HAL_UART_IRQHandler+0xfc>
 80020fa:	3201      	adds	r2, #1
 80020fc:	6222      	str	r2, [r4, #32]
 80020fe:	e7bf      	b.n	8002080 <HAL_UART_IRQHandler+0xfc>
 8002100:	08002105 	.word	0x08002105

08002104 <UART_DMAAbortOnError>:
 8002104:	b508      	push	{r3, lr}
 8002106:	6b83      	ldr	r3, [r0, #56]	; 0x38
 8002108:	2200      	movs	r2, #0
 800210a:	85da      	strh	r2, [r3, #46]	; 0x2e
 800210c:	4618      	mov	r0, r3
 800210e:	84da      	strh	r2, [r3, #38]	; 0x26
 8002110:	f7ff ff36 	bl	8001f80 <HAL_UART_ErrorCallback>
 8002114:	bd08      	pop	{r3, pc}
 8002116:	bf00      	nop

08002118 <__errno>:
 8002118:	4b01      	ldr	r3, [pc, #4]	; (8002120 <__errno+0x8>)
 800211a:	6818      	ldr	r0, [r3, #0]
 800211c:	4770      	bx	lr
 800211e:	bf00      	nop
 8002120:	2000000c 	.word	0x2000000c

08002124 <__libc_init_array>:
 8002124:	b570      	push	{r4, r5, r6, lr}
 8002126:	4e0d      	ldr	r6, [pc, #52]	; (800215c <__libc_init_array+0x38>)
 8002128:	4c0d      	ldr	r4, [pc, #52]	; (8002160 <__libc_init_array+0x3c>)
 800212a:	1ba4      	subs	r4, r4, r6
 800212c:	10a4      	asrs	r4, r4, #2
 800212e:	2500      	movs	r5, #0
 8002130:	42a5      	cmp	r5, r4
 8002132:	d109      	bne.n	8002148 <__libc_init_array+0x24>
 8002134:	4e0b      	ldr	r6, [pc, #44]	; (8002164 <__libc_init_array+0x40>)
 8002136:	4c0c      	ldr	r4, [pc, #48]	; (8002168 <__libc_init_array+0x44>)
 8002138:	f000 ff0c 	bl	8002f54 <_init>
 800213c:	1ba4      	subs	r4, r4, r6
 800213e:	10a4      	asrs	r4, r4, #2
 8002140:	2500      	movs	r5, #0
 8002142:	42a5      	cmp	r5, r4
 8002144:	d105      	bne.n	8002152 <__libc_init_array+0x2e>
 8002146:	bd70      	pop	{r4, r5, r6, pc}
 8002148:	f856 3025 	ldr.w	r3, [r6, r5, lsl #2]
 800214c:	4798      	blx	r3
 800214e:	3501      	adds	r5, #1
 8002150:	e7ee      	b.n	8002130 <__libc_init_array+0xc>
 8002152:	f856 3025 	ldr.w	r3, [r6, r5, lsl #2]
 8002156:	4798      	blx	r3
 8002158:	3501      	adds	r5, #1
 800215a:	e7f2      	b.n	8002142 <__libc_init_array+0x1e>
 800215c:	08003048 	.word	0x08003048
 8002160:	08003048 	.word	0x08003048
 8002164:	08003048 	.word	0x08003048
 8002168:	0800304c 	.word	0x0800304c

0800216c <malloc>:
 800216c:	4b02      	ldr	r3, [pc, #8]	; (8002178 <malloc+0xc>)
 800216e:	4601      	mov	r1, r0
 8002170:	6818      	ldr	r0, [r3, #0]
 8002172:	f000 b859 	b.w	8002228 <_malloc_r>
 8002176:	bf00      	nop
 8002178:	2000000c 	.word	0x2000000c

0800217c <memset>:
 800217c:	4402      	add	r2, r0
 800217e:	4603      	mov	r3, r0
 8002180:	4293      	cmp	r3, r2
 8002182:	d100      	bne.n	8002186 <memset+0xa>
 8002184:	4770      	bx	lr
 8002186:	f803 1b01 	strb.w	r1, [r3], #1
 800218a:	e7f9      	b.n	8002180 <memset+0x4>

0800218c <_free_r>:
 800218c:	b538      	push	{r3, r4, r5, lr}
 800218e:	4605      	mov	r5, r0
 8002190:	2900      	cmp	r1, #0
 8002192:	d045      	beq.n	8002220 <_free_r+0x94>
 8002194:	f851 3c04 	ldr.w	r3, [r1, #-4]
 8002198:	1f0c      	subs	r4, r1, #4
 800219a:	2b00      	cmp	r3, #0
 800219c:	bfb8      	it	lt
 800219e:	18e4      	addlt	r4, r4, r3
 80021a0:	f000 f98e 	bl	80024c0 <__malloc_lock>
 80021a4:	4a1f      	ldr	r2, [pc, #124]	; (8002224 <_free_r+0x98>)
 80021a6:	6813      	ldr	r3, [r2, #0]
 80021a8:	4610      	mov	r0, r2
 80021aa:	b933      	cbnz	r3, 80021ba <_free_r+0x2e>
 80021ac:	6063      	str	r3, [r4, #4]
 80021ae:	6014      	str	r4, [r2, #0]
 80021b0:	4628      	mov	r0, r5
 80021b2:	e8bd 4038 	ldmia.w	sp!, {r3, r4, r5, lr}
 80021b6:	f000 b984 	b.w	80024c2 <__malloc_unlock>
 80021ba:	42a3      	cmp	r3, r4
 80021bc:	d90c      	bls.n	80021d8 <_free_r+0x4c>
 80021be:	6821      	ldr	r1, [r4, #0]
 80021c0:	1862      	adds	r2, r4, r1
 80021c2:	4293      	cmp	r3, r2
 80021c4:	bf04      	itt	eq
 80021c6:	681a      	ldreq	r2, [r3, #0]
 80021c8:	685b      	ldreq	r3, [r3, #4]
 80021ca:	6063      	str	r3, [r4, #4]
 80021cc:	bf04      	itt	eq
 80021ce:	1852      	addeq	r2, r2, r1
 80021d0:	6022      	streq	r2, [r4, #0]
 80021d2:	6004      	str	r4, [r0, #0]
 80021d4:	e7ec      	b.n	80021b0 <_free_r+0x24>
 80021d6:	4613      	mov	r3, r2
 80021d8:	685a      	ldr	r2, [r3, #4]
 80021da:	b10a      	cbz	r2, 80021e0 <_free_r+0x54>
 80021dc:	42a2      	cmp	r2, r4
 80021de:	d9fa      	bls.n	80021d6 <_free_r+0x4a>
 80021e0:	6819      	ldr	r1, [r3, #0]
 80021e2:	1858      	adds	r0, r3, r1
 80021e4:	42a0      	cmp	r0, r4
 80021e6:	d10b      	bne.n	8002200 <_free_r+0x74>
 80021e8:	6820      	ldr	r0, [r4, #0]
 80021ea:	4401      	add	r1, r0
 80021ec:	1858      	adds	r0, r3, r1
 80021ee:	4282      	cmp	r2, r0
 80021f0:	6019      	str	r1, [r3, #0]
 80021f2:	d1dd      	bne.n	80021b0 <_free_r+0x24>
 80021f4:	6810      	ldr	r0, [r2, #0]
 80021f6:	6852      	ldr	r2, [r2, #4]
 80021f8:	605a      	str	r2, [r3, #4]
 80021fa:	4401      	add	r1, r0
 80021fc:	6019      	str	r1, [r3, #0]
 80021fe:	e7d7      	b.n	80021b0 <_free_r+0x24>
 8002200:	d902      	bls.n	8002208 <_free_r+0x7c>
 8002202:	230c      	movs	r3, #12
 8002204:	602b      	str	r3, [r5, #0]
 8002206:	e7d3      	b.n	80021b0 <_free_r+0x24>
 8002208:	6820      	ldr	r0, [r4, #0]
 800220a:	1821      	adds	r1, r4, r0
 800220c:	428a      	cmp	r2, r1
 800220e:	bf04      	itt	eq
 8002210:	6811      	ldreq	r1, [r2, #0]
 8002212:	6852      	ldreq	r2, [r2, #4]
 8002214:	6062      	str	r2, [r4, #4]
 8002216:	bf04      	itt	eq
 8002218:	1809      	addeq	r1, r1, r0
 800221a:	6021      	streq	r1, [r4, #0]
 800221c:	605c      	str	r4, [r3, #4]
 800221e:	e7c7      	b.n	80021b0 <_free_r+0x24>
 8002220:	bd38      	pop	{r3, r4, r5, pc}
 8002222:	bf00      	nop
 8002224:	200000ac 	.word	0x200000ac

08002228 <_malloc_r>:
 8002228:	b570      	push	{r4, r5, r6, lr}
 800222a:	1ccd      	adds	r5, r1, #3
 800222c:	f025 0503 	bic.w	r5, r5, #3
 8002230:	3508      	adds	r5, #8
 8002232:	2d0c      	cmp	r5, #12
 8002234:	bf38      	it	cc
 8002236:	250c      	movcc	r5, #12
 8002238:	2d00      	cmp	r5, #0
 800223a:	4606      	mov	r6, r0
 800223c:	db01      	blt.n	8002242 <_malloc_r+0x1a>
 800223e:	42a9      	cmp	r1, r5
 8002240:	d903      	bls.n	800224a <_malloc_r+0x22>
 8002242:	230c      	movs	r3, #12
 8002244:	6033      	str	r3, [r6, #0]
 8002246:	2000      	movs	r0, #0
 8002248:	bd70      	pop	{r4, r5, r6, pc}
 800224a:	f000 f939 	bl	80024c0 <__malloc_lock>
 800224e:	4a21      	ldr	r2, [pc, #132]	; (80022d4 <_malloc_r+0xac>)
 8002250:	6814      	ldr	r4, [r2, #0]
 8002252:	4621      	mov	r1, r4
 8002254:	b991      	cbnz	r1, 800227c <_malloc_r+0x54>
 8002256:	4c20      	ldr	r4, [pc, #128]	; (80022d8 <_malloc_r+0xb0>)
 8002258:	6823      	ldr	r3, [r4, #0]
 800225a:	b91b      	cbnz	r3, 8002264 <_malloc_r+0x3c>
 800225c:	4630      	mov	r0, r6
 800225e:	f000 f855 	bl	800230c <_sbrk_r>
 8002262:	6020      	str	r0, [r4, #0]
 8002264:	4629      	mov	r1, r5
 8002266:	4630      	mov	r0, r6
 8002268:	f000 f850 	bl	800230c <_sbrk_r>
 800226c:	1c43      	adds	r3, r0, #1
 800226e:	d124      	bne.n	80022ba <_malloc_r+0x92>
 8002270:	230c      	movs	r3, #12
 8002272:	6033      	str	r3, [r6, #0]
 8002274:	4630      	mov	r0, r6
 8002276:	f000 f924 	bl	80024c2 <__malloc_unlock>
 800227a:	e7e4      	b.n	8002246 <_malloc_r+0x1e>
 800227c:	680b      	ldr	r3, [r1, #0]
 800227e:	1b5b      	subs	r3, r3, r5
 8002280:	d418      	bmi.n	80022b4 <_malloc_r+0x8c>
 8002282:	2b0b      	cmp	r3, #11
 8002284:	d90f      	bls.n	80022a6 <_malloc_r+0x7e>
 8002286:	600b      	str	r3, [r1, #0]
 8002288:	50cd      	str	r5, [r1, r3]
 800228a:	18cc      	adds	r4, r1, r3
 800228c:	4630      	mov	r0, r6
 800228e:	f000 f918 	bl	80024c2 <__malloc_unlock>
 8002292:	f104 000b 	add.w	r0, r4, #11
 8002296:	1d23      	adds	r3, r4, #4
 8002298:	f020 0007 	bic.w	r0, r0, #7
 800229c:	1ac3      	subs	r3, r0, r3
 800229e:	d0d3      	beq.n	8002248 <_malloc_r+0x20>
 80022a0:	425a      	negs	r2, r3
 80022a2:	50e2      	str	r2, [r4, r3]
 80022a4:	e7d0      	b.n	8002248 <_malloc_r+0x20>
 80022a6:	428c      	cmp	r4, r1
 80022a8:	684b      	ldr	r3, [r1, #4]
 80022aa:	bf16      	itet	ne
 80022ac:	6063      	strne	r3, [r4, #4]
 80022ae:	6013      	streq	r3, [r2, #0]
 80022b0:	460c      	movne	r4, r1
 80022b2:	e7eb      	b.n	800228c <_malloc_r+0x64>
 80022b4:	460c      	mov	r4, r1
 80022b6:	6849      	ldr	r1, [r1, #4]
 80022b8:	e7cc      	b.n	8002254 <_malloc_r+0x2c>
 80022ba:	1cc4      	adds	r4, r0, #3
 80022bc:	f024 0403 	bic.w	r4, r4, #3
 80022c0:	42a0      	cmp	r0, r4
 80022c2:	d005      	beq.n	80022d0 <_malloc_r+0xa8>
 80022c4:	1a21      	subs	r1, r4, r0
 80022c6:	4630      	mov	r0, r6
 80022c8:	f000 f820 	bl	800230c <_sbrk_r>
 80022cc:	3001      	adds	r0, #1
 80022ce:	d0cf      	beq.n	8002270 <_malloc_r+0x48>
 80022d0:	6025      	str	r5, [r4, #0]
 80022d2:	e7db      	b.n	800228c <_malloc_r+0x64>
 80022d4:	200000ac 	.word	0x200000ac
 80022d8:	200000b0 	.word	0x200000b0

080022dc <iprintf>:
 80022dc:	b40f      	push	{r0, r1, r2, r3}
 80022de:	4b0a      	ldr	r3, [pc, #40]	; (8002308 <iprintf+0x2c>)
 80022e0:	b513      	push	{r0, r1, r4, lr}
 80022e2:	681c      	ldr	r4, [r3, #0]
 80022e4:	b124      	cbz	r4, 80022f0 <iprintf+0x14>
 80022e6:	69a3      	ldr	r3, [r4, #24]
 80022e8:	b913      	cbnz	r3, 80022f0 <iprintf+0x14>
 80022ea:	4620      	mov	r0, r4
 80022ec:	f000 f85e 	bl	80023ac <__sinit>
 80022f0:	ab05      	add	r3, sp, #20
 80022f2:	9a04      	ldr	r2, [sp, #16]
 80022f4:	68a1      	ldr	r1, [r4, #8]
 80022f6:	9301      	str	r3, [sp, #4]
 80022f8:	4620      	mov	r0, r4
 80022fa:	f000 f90d 	bl	8002518 <_vfiprintf_r>
 80022fe:	b002      	add	sp, #8
 8002300:	e8bd 4010 	ldmia.w	sp!, {r4, lr}
 8002304:	b004      	add	sp, #16
 8002306:	4770      	bx	lr
 8002308:	2000000c 	.word	0x2000000c

0800230c <_sbrk_r>:
 800230c:	b538      	push	{r3, r4, r5, lr}
 800230e:	4c06      	ldr	r4, [pc, #24]	; (8002328 <_sbrk_r+0x1c>)
 8002310:	2300      	movs	r3, #0
 8002312:	4605      	mov	r5, r0
 8002314:	4608      	mov	r0, r1
 8002316:	6023      	str	r3, [r4, #0]
 8002318:	f7fe fc44 	bl	8000ba4 <_sbrk>
 800231c:	1c43      	adds	r3, r0, #1
 800231e:	d102      	bne.n	8002326 <_sbrk_r+0x1a>
 8002320:	6823      	ldr	r3, [r4, #0]
 8002322:	b103      	cbz	r3, 8002326 <_sbrk_r+0x1a>
 8002324:	602b      	str	r3, [r5, #0]
 8002326:	bd38      	pop	{r3, r4, r5, pc}
 8002328:	200001c0 	.word	0x200001c0

0800232c <std>:
 800232c:	2300      	movs	r3, #0
 800232e:	b510      	push	{r4, lr}
 8002330:	4604      	mov	r4, r0
 8002332:	e9c0 3300 	strd	r3, r3, [r0]
 8002336:	6083      	str	r3, [r0, #8]
 8002338:	8181      	strh	r1, [r0, #12]
 800233a:	6643      	str	r3, [r0, #100]	; 0x64
 800233c:	81c2      	strh	r2, [r0, #14]
 800233e:	e9c0 3304 	strd	r3, r3, [r0, #16]
 8002342:	6183      	str	r3, [r0, #24]
 8002344:	4619      	mov	r1, r3
 8002346:	2208      	movs	r2, #8
 8002348:	305c      	adds	r0, #92	; 0x5c
 800234a:	f7ff ff17 	bl	800217c <memset>
 800234e:	4b05      	ldr	r3, [pc, #20]	; (8002364 <std+0x38>)
 8002350:	6263      	str	r3, [r4, #36]	; 0x24
 8002352:	4b05      	ldr	r3, [pc, #20]	; (8002368 <std+0x3c>)
 8002354:	62a3      	str	r3, [r4, #40]	; 0x28
 8002356:	4b05      	ldr	r3, [pc, #20]	; (800236c <std+0x40>)
 8002358:	62e3      	str	r3, [r4, #44]	; 0x2c
 800235a:	4b05      	ldr	r3, [pc, #20]	; (8002370 <std+0x44>)
 800235c:	6224      	str	r4, [r4, #32]
 800235e:	6323      	str	r3, [r4, #48]	; 0x30
 8002360:	bd10      	pop	{r4, pc}
 8002362:	bf00      	nop
 8002364:	08002a55 	.word	0x08002a55
 8002368:	08002a77 	.word	0x08002a77
 800236c:	08002aaf 	.word	0x08002aaf
 8002370:	08002ad3 	.word	0x08002ad3

08002374 <_cleanup_r>:
 8002374:	4901      	ldr	r1, [pc, #4]	; (800237c <_cleanup_r+0x8>)
 8002376:	f000 b885 	b.w	8002484 <_fwalk_reent>
 800237a:	bf00      	nop
 800237c:	08002dad 	.word	0x08002dad

08002380 <__sfmoreglue>:
 8002380:	b570      	push	{r4, r5, r6, lr}
 8002382:	1e4a      	subs	r2, r1, #1
 8002384:	2568      	movs	r5, #104	; 0x68
 8002386:	4355      	muls	r5, r2
 8002388:	460e      	mov	r6, r1
 800238a:	f105 0174 	add.w	r1, r5, #116	; 0x74
 800238e:	f7ff ff4b 	bl	8002228 <_malloc_r>
 8002392:	4604      	mov	r4, r0
 8002394:	b140      	cbz	r0, 80023a8 <__sfmoreglue+0x28>
 8002396:	2100      	movs	r1, #0
 8002398:	e9c0 1600 	strd	r1, r6, [r0]
 800239c:	300c      	adds	r0, #12
 800239e:	60a0      	str	r0, [r4, #8]
 80023a0:	f105 0268 	add.w	r2, r5, #104	; 0x68
 80023a4:	f7ff feea 	bl	800217c <memset>
 80023a8:	4620      	mov	r0, r4
 80023aa:	bd70      	pop	{r4, r5, r6, pc}

080023ac <__sinit>:
 80023ac:	6983      	ldr	r3, [r0, #24]
 80023ae:	b510      	push	{r4, lr}
 80023b0:	4604      	mov	r4, r0
 80023b2:	bb33      	cbnz	r3, 8002402 <__sinit+0x56>
 80023b4:	e9c0 3312 	strd	r3, r3, [r0, #72]	; 0x48
 80023b8:	6503      	str	r3, [r0, #80]	; 0x50
 80023ba:	4b12      	ldr	r3, [pc, #72]	; (8002404 <__sinit+0x58>)
 80023bc:	4a12      	ldr	r2, [pc, #72]	; (8002408 <__sinit+0x5c>)
 80023be:	681b      	ldr	r3, [r3, #0]
 80023c0:	6282      	str	r2, [r0, #40]	; 0x28
 80023c2:	4298      	cmp	r0, r3
 80023c4:	bf04      	itt	eq
 80023c6:	2301      	moveq	r3, #1
 80023c8:	6183      	streq	r3, [r0, #24]
 80023ca:	f000 f81f 	bl	800240c <__sfp>
 80023ce:	6060      	str	r0, [r4, #4]
 80023d0:	4620      	mov	r0, r4
 80023d2:	f000 f81b 	bl	800240c <__sfp>
 80023d6:	60a0      	str	r0, [r4, #8]
 80023d8:	4620      	mov	r0, r4
 80023da:	f000 f817 	bl	800240c <__sfp>
 80023de:	2200      	movs	r2, #0
 80023e0:	60e0      	str	r0, [r4, #12]
 80023e2:	2104      	movs	r1, #4
 80023e4:	6860      	ldr	r0, [r4, #4]
 80023e6:	f7ff ffa1 	bl	800232c <std>
 80023ea:	2201      	movs	r2, #1
 80023ec:	2109      	movs	r1, #9
 80023ee:	68a0      	ldr	r0, [r4, #8]
 80023f0:	f7ff ff9c 	bl	800232c <std>
 80023f4:	2202      	movs	r2, #2
 80023f6:	2112      	movs	r1, #18
 80023f8:	68e0      	ldr	r0, [r4, #12]
 80023fa:	f7ff ff97 	bl	800232c <std>
 80023fe:	2301      	movs	r3, #1
 8002400:	61a3      	str	r3, [r4, #24]
 8002402:	bd10      	pop	{r4, pc}
 8002404:	08002fa8 	.word	0x08002fa8
 8002408:	08002375 	.word	0x08002375

0800240c <__sfp>:
 800240c:	b5f8      	push	{r3, r4, r5, r6, r7, lr}
 800240e:	4b1b      	ldr	r3, [pc, #108]	; (800247c <__sfp+0x70>)
 8002410:	681e      	ldr	r6, [r3, #0]
 8002412:	69b3      	ldr	r3, [r6, #24]
 8002414:	4607      	mov	r7, r0
 8002416:	b913      	cbnz	r3, 800241e <__sfp+0x12>
 8002418:	4630      	mov	r0, r6
 800241a:	f7ff ffc7 	bl	80023ac <__sinit>
 800241e:	3648      	adds	r6, #72	; 0x48
 8002420:	e9d6 3401 	ldrd	r3, r4, [r6, #4]
 8002424:	3b01      	subs	r3, #1
 8002426:	d503      	bpl.n	8002430 <__sfp+0x24>
 8002428:	6833      	ldr	r3, [r6, #0]
 800242a:	b133      	cbz	r3, 800243a <__sfp+0x2e>
 800242c:	6836      	ldr	r6, [r6, #0]
 800242e:	e7f7      	b.n	8002420 <__sfp+0x14>
 8002430:	f9b4 500c 	ldrsh.w	r5, [r4, #12]
 8002434:	b16d      	cbz	r5, 8002452 <__sfp+0x46>
 8002436:	3468      	adds	r4, #104	; 0x68
 8002438:	e7f4      	b.n	8002424 <__sfp+0x18>
 800243a:	2104      	movs	r1, #4
 800243c:	4638      	mov	r0, r7
 800243e:	f7ff ff9f 	bl	8002380 <__sfmoreglue>
 8002442:	6030      	str	r0, [r6, #0]
 8002444:	2800      	cmp	r0, #0
 8002446:	d1f1      	bne.n	800242c <__sfp+0x20>
 8002448:	230c      	movs	r3, #12
 800244a:	603b      	str	r3, [r7, #0]
 800244c:	4604      	mov	r4, r0
 800244e:	4620      	mov	r0, r4
 8002450:	bdf8      	pop	{r3, r4, r5, r6, r7, pc}
 8002452:	4b0b      	ldr	r3, [pc, #44]	; (8002480 <__sfp+0x74>)
 8002454:	6665      	str	r5, [r4, #100]	; 0x64
 8002456:	e9c4 5500 	strd	r5, r5, [r4]
 800245a:	60a5      	str	r5, [r4, #8]
 800245c:	e9c4 3503 	strd	r3, r5, [r4, #12]
 8002460:	e9c4 5505 	strd	r5, r5, [r4, #20]
 8002464:	2208      	movs	r2, #8
 8002466:	4629      	mov	r1, r5
 8002468:	f104 005c 	add.w	r0, r4, #92	; 0x5c
 800246c:	f7ff fe86 	bl	800217c <memset>
 8002470:	e9c4 550d 	strd	r5, r5, [r4, #52]	; 0x34
 8002474:	e9c4 5512 	strd	r5, r5, [r4, #72]	; 0x48
 8002478:	e7e9      	b.n	800244e <__sfp+0x42>
 800247a:	bf00      	nop
 800247c:	08002fa8 	.word	0x08002fa8
 8002480:	ffff0001 	.word	0xffff0001

08002484 <_fwalk_reent>:
 8002484:	e92d 43f8 	stmdb	sp!, {r3, r4, r5, r6, r7, r8, r9, lr}
 8002488:	4680      	mov	r8, r0
 800248a:	4689      	mov	r9, r1
 800248c:	f100 0448 	add.w	r4, r0, #72	; 0x48
 8002490:	2600      	movs	r6, #0
 8002492:	b914      	cbnz	r4, 800249a <_fwalk_reent+0x16>
 8002494:	4630      	mov	r0, r6
 8002496:	e8bd 83f8 	ldmia.w	sp!, {r3, r4, r5, r6, r7, r8, r9, pc}
 800249a:	e9d4 7501 	ldrd	r7, r5, [r4, #4]
 800249e:	3f01      	subs	r7, #1
 80024a0:	d501      	bpl.n	80024a6 <_fwalk_reent+0x22>
 80024a2:	6824      	ldr	r4, [r4, #0]
 80024a4:	e7f5      	b.n	8002492 <_fwalk_reent+0xe>
 80024a6:	89ab      	ldrh	r3, [r5, #12]
 80024a8:	2b01      	cmp	r3, #1
 80024aa:	d907      	bls.n	80024bc <_fwalk_reent+0x38>
 80024ac:	f9b5 300e 	ldrsh.w	r3, [r5, #14]
 80024b0:	3301      	adds	r3, #1
 80024b2:	d003      	beq.n	80024bc <_fwalk_reent+0x38>
 80024b4:	4629      	mov	r1, r5
 80024b6:	4640      	mov	r0, r8
 80024b8:	47c8      	blx	r9
 80024ba:	4306      	orrs	r6, r0
 80024bc:	3568      	adds	r5, #104	; 0x68
 80024be:	e7ee      	b.n	800249e <_fwalk_reent+0x1a>

080024c0 <__malloc_lock>:
 80024c0:	4770      	bx	lr

080024c2 <__malloc_unlock>:
 80024c2:	4770      	bx	lr

080024c4 <__sfputc_r>:
 80024c4:	6893      	ldr	r3, [r2, #8]
 80024c6:	3b01      	subs	r3, #1
 80024c8:	2b00      	cmp	r3, #0
 80024ca:	b410      	push	{r4}
 80024cc:	6093      	str	r3, [r2, #8]
 80024ce:	da08      	bge.n	80024e2 <__sfputc_r+0x1e>
 80024d0:	6994      	ldr	r4, [r2, #24]
 80024d2:	42a3      	cmp	r3, r4
 80024d4:	db01      	blt.n	80024da <__sfputc_r+0x16>
 80024d6:	290a      	cmp	r1, #10
 80024d8:	d103      	bne.n	80024e2 <__sfputc_r+0x1e>
 80024da:	f85d 4b04 	ldr.w	r4, [sp], #4
 80024de:	f000 bafd 	b.w	8002adc <__swbuf_r>
 80024e2:	6813      	ldr	r3, [r2, #0]
 80024e4:	1c58      	adds	r0, r3, #1
 80024e6:	6010      	str	r0, [r2, #0]
 80024e8:	7019      	strb	r1, [r3, #0]
 80024ea:	4608      	mov	r0, r1
 80024ec:	f85d 4b04 	ldr.w	r4, [sp], #4
 80024f0:	4770      	bx	lr

080024f2 <__sfputs_r>:
 80024f2:	b5f8      	push	{r3, r4, r5, r6, r7, lr}
 80024f4:	4606      	mov	r6, r0
 80024f6:	460f      	mov	r7, r1
 80024f8:	4614      	mov	r4, r2
 80024fa:	18d5      	adds	r5, r2, r3
 80024fc:	42ac      	cmp	r4, r5
 80024fe:	d101      	bne.n	8002504 <__sfputs_r+0x12>
 8002500:	2000      	movs	r0, #0
 8002502:	e007      	b.n	8002514 <__sfputs_r+0x22>
 8002504:	463a      	mov	r2, r7
 8002506:	f814 1b01 	ldrb.w	r1, [r4], #1
 800250a:	4630      	mov	r0, r6
 800250c:	f7ff ffda 	bl	80024c4 <__sfputc_r>
 8002510:	1c43      	adds	r3, r0, #1
 8002512:	d1f3      	bne.n	80024fc <__sfputs_r+0xa>
 8002514:	bdf8      	pop	{r3, r4, r5, r6, r7, pc}
	...

08002518 <_vfiprintf_r>:
 8002518:	e92d 4ff0 	stmdb	sp!, {r4, r5, r6, r7, r8, r9, sl, fp, lr}
 800251c:	460c      	mov	r4, r1
 800251e:	b09d      	sub	sp, #116	; 0x74
 8002520:	4617      	mov	r7, r2
 8002522:	461d      	mov	r5, r3
 8002524:	4606      	mov	r6, r0
 8002526:	b118      	cbz	r0, 8002530 <_vfiprintf_r+0x18>
 8002528:	6983      	ldr	r3, [r0, #24]
 800252a:	b90b      	cbnz	r3, 8002530 <_vfiprintf_r+0x18>
 800252c:	f7ff ff3e 	bl	80023ac <__sinit>
 8002530:	4b7c      	ldr	r3, [pc, #496]	; (8002724 <_vfiprintf_r+0x20c>)
 8002532:	429c      	cmp	r4, r3
 8002534:	d158      	bne.n	80025e8 <_vfiprintf_r+0xd0>
 8002536:	6874      	ldr	r4, [r6, #4]
 8002538:	89a3      	ldrh	r3, [r4, #12]
 800253a:	0718      	lsls	r0, r3, #28
 800253c:	d55e      	bpl.n	80025fc <_vfiprintf_r+0xe4>
 800253e:	6923      	ldr	r3, [r4, #16]
 8002540:	2b00      	cmp	r3, #0
 8002542:	d05b      	beq.n	80025fc <_vfiprintf_r+0xe4>
 8002544:	2300      	movs	r3, #0
 8002546:	9309      	str	r3, [sp, #36]	; 0x24
 8002548:	2320      	movs	r3, #32
 800254a:	f88d 3029 	strb.w	r3, [sp, #41]	; 0x29
 800254e:	2330      	movs	r3, #48	; 0x30
 8002550:	f88d 302a 	strb.w	r3, [sp, #42]	; 0x2a
 8002554:	9503      	str	r5, [sp, #12]
 8002556:	f04f 0b01 	mov.w	fp, #1
 800255a:	46b8      	mov	r8, r7
 800255c:	4645      	mov	r5, r8
 800255e:	f815 3b01 	ldrb.w	r3, [r5], #1
 8002562:	b10b      	cbz	r3, 8002568 <_vfiprintf_r+0x50>
 8002564:	2b25      	cmp	r3, #37	; 0x25
 8002566:	d154      	bne.n	8002612 <_vfiprintf_r+0xfa>
 8002568:	ebb8 0a07 	subs.w	sl, r8, r7
 800256c:	d00b      	beq.n	8002586 <_vfiprintf_r+0x6e>
 800256e:	4653      	mov	r3, sl
 8002570:	463a      	mov	r2, r7
 8002572:	4621      	mov	r1, r4
 8002574:	4630      	mov	r0, r6
 8002576:	f7ff ffbc 	bl	80024f2 <__sfputs_r>
 800257a:	3001      	adds	r0, #1
 800257c:	f000 80c2 	beq.w	8002704 <_vfiprintf_r+0x1ec>
 8002580:	9b09      	ldr	r3, [sp, #36]	; 0x24
 8002582:	4453      	add	r3, sl
 8002584:	9309      	str	r3, [sp, #36]	; 0x24
 8002586:	f898 3000 	ldrb.w	r3, [r8]
 800258a:	2b00      	cmp	r3, #0
 800258c:	f000 80ba 	beq.w	8002704 <_vfiprintf_r+0x1ec>
 8002590:	2300      	movs	r3, #0
 8002592:	f04f 32ff 	mov.w	r2, #4294967295
 8002596:	e9cd 2305 	strd	r2, r3, [sp, #20]
 800259a:	9304      	str	r3, [sp, #16]
 800259c:	9307      	str	r3, [sp, #28]
 800259e:	f88d 3053 	strb.w	r3, [sp, #83]	; 0x53
 80025a2:	931a      	str	r3, [sp, #104]	; 0x68
 80025a4:	46a8      	mov	r8, r5
 80025a6:	2205      	movs	r2, #5
 80025a8:	f818 1b01 	ldrb.w	r1, [r8], #1
 80025ac:	485e      	ldr	r0, [pc, #376]	; (8002728 <_vfiprintf_r+0x210>)
 80025ae:	f7fd fe2f 	bl	8000210 <memchr>
 80025b2:	9b04      	ldr	r3, [sp, #16]
 80025b4:	bb78      	cbnz	r0, 8002616 <_vfiprintf_r+0xfe>
 80025b6:	06d9      	lsls	r1, r3, #27
 80025b8:	bf44      	itt	mi
 80025ba:	2220      	movmi	r2, #32
 80025bc:	f88d 2053 	strbmi.w	r2, [sp, #83]	; 0x53
 80025c0:	071a      	lsls	r2, r3, #28
 80025c2:	bf44      	itt	mi
 80025c4:	222b      	movmi	r2, #43	; 0x2b
 80025c6:	f88d 2053 	strbmi.w	r2, [sp, #83]	; 0x53
 80025ca:	782a      	ldrb	r2, [r5, #0]
 80025cc:	2a2a      	cmp	r2, #42	; 0x2a
 80025ce:	d02a      	beq.n	8002626 <_vfiprintf_r+0x10e>
 80025d0:	9a07      	ldr	r2, [sp, #28]
 80025d2:	46a8      	mov	r8, r5
 80025d4:	2000      	movs	r0, #0
 80025d6:	250a      	movs	r5, #10
 80025d8:	4641      	mov	r1, r8
 80025da:	f811 3b01 	ldrb.w	r3, [r1], #1
 80025de:	3b30      	subs	r3, #48	; 0x30
 80025e0:	2b09      	cmp	r3, #9
 80025e2:	d969      	bls.n	80026b8 <_vfiprintf_r+0x1a0>
 80025e4:	b360      	cbz	r0, 8002640 <_vfiprintf_r+0x128>
 80025e6:	e024      	b.n	8002632 <_vfiprintf_r+0x11a>
 80025e8:	4b50      	ldr	r3, [pc, #320]	; (800272c <_vfiprintf_r+0x214>)
 80025ea:	429c      	cmp	r4, r3
 80025ec:	d101      	bne.n	80025f2 <_vfiprintf_r+0xda>
 80025ee:	68b4      	ldr	r4, [r6, #8]
 80025f0:	e7a2      	b.n	8002538 <_vfiprintf_r+0x20>
 80025f2:	4b4f      	ldr	r3, [pc, #316]	; (8002730 <_vfiprintf_r+0x218>)
 80025f4:	429c      	cmp	r4, r3
 80025f6:	bf08      	it	eq
 80025f8:	68f4      	ldreq	r4, [r6, #12]
 80025fa:	e79d      	b.n	8002538 <_vfiprintf_r+0x20>
 80025fc:	4621      	mov	r1, r4
 80025fe:	4630      	mov	r0, r6
 8002600:	f000 fad0 	bl	8002ba4 <__swsetup_r>
 8002604:	2800      	cmp	r0, #0
 8002606:	d09d      	beq.n	8002544 <_vfiprintf_r+0x2c>
 8002608:	f04f 30ff 	mov.w	r0, #4294967295
 800260c:	b01d      	add	sp, #116	; 0x74
 800260e:	e8bd 8ff0 	ldmia.w	sp!, {r4, r5, r6, r7, r8, r9, sl, fp, pc}
 8002612:	46a8      	mov	r8, r5
 8002614:	e7a2      	b.n	800255c <_vfiprintf_r+0x44>
 8002616:	4a44      	ldr	r2, [pc, #272]	; (8002728 <_vfiprintf_r+0x210>)
 8002618:	1a80      	subs	r0, r0, r2
 800261a:	fa0b f000 	lsl.w	r0, fp, r0
 800261e:	4318      	orrs	r0, r3
 8002620:	9004      	str	r0, [sp, #16]
 8002622:	4645      	mov	r5, r8
 8002624:	e7be      	b.n	80025a4 <_vfiprintf_r+0x8c>
 8002626:	9a03      	ldr	r2, [sp, #12]
 8002628:	1d11      	adds	r1, r2, #4
 800262a:	6812      	ldr	r2, [r2, #0]
 800262c:	9103      	str	r1, [sp, #12]
 800262e:	2a00      	cmp	r2, #0
 8002630:	db01      	blt.n	8002636 <_vfiprintf_r+0x11e>
 8002632:	9207      	str	r2, [sp, #28]
 8002634:	e004      	b.n	8002640 <_vfiprintf_r+0x128>
 8002636:	4252      	negs	r2, r2
 8002638:	f043 0302 	orr.w	r3, r3, #2
 800263c:	9207      	str	r2, [sp, #28]
 800263e:	9304      	str	r3, [sp, #16]
 8002640:	f898 3000 	ldrb.w	r3, [r8]
 8002644:	2b2e      	cmp	r3, #46	; 0x2e
 8002646:	d10e      	bne.n	8002666 <_vfiprintf_r+0x14e>
 8002648:	f898 3001 	ldrb.w	r3, [r8, #1]
 800264c:	2b2a      	cmp	r3, #42	; 0x2a
 800264e:	d138      	bne.n	80026c2 <_vfiprintf_r+0x1aa>
 8002650:	9b03      	ldr	r3, [sp, #12]
 8002652:	1d1a      	adds	r2, r3, #4
 8002654:	681b      	ldr	r3, [r3, #0]
 8002656:	9203      	str	r2, [sp, #12]
 8002658:	2b00      	cmp	r3, #0
 800265a:	bfb8      	it	lt
 800265c:	f04f 33ff 	movlt.w	r3, #4294967295
 8002660:	f108 0802 	add.w	r8, r8, #2
 8002664:	9305      	str	r3, [sp, #20]
 8002666:	4d33      	ldr	r5, [pc, #204]	; (8002734 <_vfiprintf_r+0x21c>)
 8002668:	f898 1000 	ldrb.w	r1, [r8]
 800266c:	2203      	movs	r2, #3
 800266e:	4628      	mov	r0, r5
 8002670:	f7fd fdce 	bl	8000210 <memchr>
 8002674:	b140      	cbz	r0, 8002688 <_vfiprintf_r+0x170>
 8002676:	2340      	movs	r3, #64	; 0x40
 8002678:	1b40      	subs	r0, r0, r5
 800267a:	fa03 f000 	lsl.w	r0, r3, r0
 800267e:	9b04      	ldr	r3, [sp, #16]
 8002680:	4303      	orrs	r3, r0
 8002682:	f108 0801 	add.w	r8, r8, #1
 8002686:	9304      	str	r3, [sp, #16]
 8002688:	f898 1000 	ldrb.w	r1, [r8]
 800268c:	482a      	ldr	r0, [pc, #168]	; (8002738 <_vfiprintf_r+0x220>)
 800268e:	f88d 1028 	strb.w	r1, [sp, #40]	; 0x28
 8002692:	2206      	movs	r2, #6
 8002694:	f108 0701 	add.w	r7, r8, #1
 8002698:	f7fd fdba 	bl	8000210 <memchr>
 800269c:	2800      	cmp	r0, #0
 800269e:	d037      	beq.n	8002710 <_vfiprintf_r+0x1f8>
 80026a0:	4b26      	ldr	r3, [pc, #152]	; (800273c <_vfiprintf_r+0x224>)
 80026a2:	bb1b      	cbnz	r3, 80026ec <_vfiprintf_r+0x1d4>
 80026a4:	9b03      	ldr	r3, [sp, #12]
 80026a6:	3307      	adds	r3, #7
 80026a8:	f023 0307 	bic.w	r3, r3, #7
 80026ac:	3308      	adds	r3, #8
 80026ae:	9303      	str	r3, [sp, #12]
 80026b0:	9b09      	ldr	r3, [sp, #36]	; 0x24
 80026b2:	444b      	add	r3, r9
 80026b4:	9309      	str	r3, [sp, #36]	; 0x24
 80026b6:	e750      	b.n	800255a <_vfiprintf_r+0x42>
 80026b8:	fb05 3202 	mla	r2, r5, r2, r3
 80026bc:	2001      	movs	r0, #1
 80026be:	4688      	mov	r8, r1
 80026c0:	e78a      	b.n	80025d8 <_vfiprintf_r+0xc0>
 80026c2:	2300      	movs	r3, #0
 80026c4:	f108 0801 	add.w	r8, r8, #1
 80026c8:	9305      	str	r3, [sp, #20]
 80026ca:	4619      	mov	r1, r3
 80026cc:	250a      	movs	r5, #10
 80026ce:	4640      	mov	r0, r8
 80026d0:	f810 2b01 	ldrb.w	r2, [r0], #1
 80026d4:	3a30      	subs	r2, #48	; 0x30
 80026d6:	2a09      	cmp	r2, #9
 80026d8:	d903      	bls.n	80026e2 <_vfiprintf_r+0x1ca>
 80026da:	2b00      	cmp	r3, #0
 80026dc:	d0c3      	beq.n	8002666 <_vfiprintf_r+0x14e>
 80026de:	9105      	str	r1, [sp, #20]
 80026e0:	e7c1      	b.n	8002666 <_vfiprintf_r+0x14e>
 80026e2:	fb05 2101 	mla	r1, r5, r1, r2
 80026e6:	2301      	movs	r3, #1
 80026e8:	4680      	mov	r8, r0
 80026ea:	e7f0      	b.n	80026ce <_vfiprintf_r+0x1b6>
 80026ec:	ab03      	add	r3, sp, #12
 80026ee:	9300      	str	r3, [sp, #0]
 80026f0:	4622      	mov	r2, r4
 80026f2:	4b13      	ldr	r3, [pc, #76]	; (8002740 <_vfiprintf_r+0x228>)
 80026f4:	a904      	add	r1, sp, #16
 80026f6:	4630      	mov	r0, r6
 80026f8:	f3af 8000 	nop.w
 80026fc:	f1b0 3fff 	cmp.w	r0, #4294967295
 8002700:	4681      	mov	r9, r0
 8002702:	d1d5      	bne.n	80026b0 <_vfiprintf_r+0x198>
 8002704:	89a3      	ldrh	r3, [r4, #12]
 8002706:	065b      	lsls	r3, r3, #25
 8002708:	f53f af7e 	bmi.w	8002608 <_vfiprintf_r+0xf0>
 800270c:	9809      	ldr	r0, [sp, #36]	; 0x24
 800270e:	e77d      	b.n	800260c <_vfiprintf_r+0xf4>
 8002710:	ab03      	add	r3, sp, #12
 8002712:	9300      	str	r3, [sp, #0]
 8002714:	4622      	mov	r2, r4
 8002716:	4b0a      	ldr	r3, [pc, #40]	; (8002740 <_vfiprintf_r+0x228>)
 8002718:	a904      	add	r1, sp, #16
 800271a:	4630      	mov	r0, r6
 800271c:	f000 f888 	bl	8002830 <_printf_i>
 8002720:	e7ec      	b.n	80026fc <_vfiprintf_r+0x1e4>
 8002722:	bf00      	nop
 8002724:	08002fcc 	.word	0x08002fcc
 8002728:	0800300c 	.word	0x0800300c
 800272c:	08002fec 	.word	0x08002fec
 8002730:	08002fac 	.word	0x08002fac
 8002734:	08003012 	.word	0x08003012
 8002738:	08003016 	.word	0x08003016
 800273c:	00000000 	.word	0x00000000
 8002740:	080024f3 	.word	0x080024f3

08002744 <_printf_common>:
 8002744:	e92d 47f0 	stmdb	sp!, {r4, r5, r6, r7, r8, r9, sl, lr}
 8002748:	4691      	mov	r9, r2
 800274a:	461f      	mov	r7, r3
 800274c:	688a      	ldr	r2, [r1, #8]
 800274e:	690b      	ldr	r3, [r1, #16]
 8002750:	f8dd 8020 	ldr.w	r8, [sp, #32]
 8002754:	4293      	cmp	r3, r2
 8002756:	bfb8      	it	lt
 8002758:	4613      	movlt	r3, r2
 800275a:	f8c9 3000 	str.w	r3, [r9]
 800275e:	f891 2043 	ldrb.w	r2, [r1, #67]	; 0x43
 8002762:	4606      	mov	r6, r0
 8002764:	460c      	mov	r4, r1
 8002766:	b112      	cbz	r2, 800276e <_printf_common+0x2a>
 8002768:	3301      	adds	r3, #1
 800276a:	f8c9 3000 	str.w	r3, [r9]
 800276e:	6823      	ldr	r3, [r4, #0]
 8002770:	0699      	lsls	r1, r3, #26
 8002772:	bf42      	ittt	mi
 8002774:	f8d9 3000 	ldrmi.w	r3, [r9]
 8002778:	3302      	addmi	r3, #2
 800277a:	f8c9 3000 	strmi.w	r3, [r9]
 800277e:	6825      	ldr	r5, [r4, #0]
 8002780:	f015 0506 	ands.w	r5, r5, #6
 8002784:	d107      	bne.n	8002796 <_printf_common+0x52>
 8002786:	f104 0a19 	add.w	sl, r4, #25
 800278a:	68e3      	ldr	r3, [r4, #12]
 800278c:	f8d9 2000 	ldr.w	r2, [r9]
 8002790:	1a9b      	subs	r3, r3, r2
 8002792:	42ab      	cmp	r3, r5
 8002794:	dc28      	bgt.n	80027e8 <_printf_common+0xa4>
 8002796:	f894 3043 	ldrb.w	r3, [r4, #67]	; 0x43
 800279a:	6822      	ldr	r2, [r4, #0]
 800279c:	3300      	adds	r3, #0
 800279e:	bf18      	it	ne
 80027a0:	2301      	movne	r3, #1
 80027a2:	0692      	lsls	r2, r2, #26
 80027a4:	d42d      	bmi.n	8002802 <_printf_common+0xbe>
 80027a6:	f104 0243 	add.w	r2, r4, #67	; 0x43
 80027aa:	4639      	mov	r1, r7
 80027ac:	4630      	mov	r0, r6
 80027ae:	47c0      	blx	r8
 80027b0:	3001      	adds	r0, #1
 80027b2:	d020      	beq.n	80027f6 <_printf_common+0xb2>
 80027b4:	6823      	ldr	r3, [r4, #0]
 80027b6:	68e5      	ldr	r5, [r4, #12]
 80027b8:	f8d9 2000 	ldr.w	r2, [r9]
 80027bc:	f003 0306 	and.w	r3, r3, #6
 80027c0:	2b04      	cmp	r3, #4
 80027c2:	bf08      	it	eq
 80027c4:	1aad      	subeq	r5, r5, r2
 80027c6:	68a3      	ldr	r3, [r4, #8]
 80027c8:	6922      	ldr	r2, [r4, #16]
 80027ca:	bf0c      	ite	eq
 80027cc:	ea25 75e5 	biceq.w	r5, r5, r5, asr #31
 80027d0:	2500      	movne	r5, #0
 80027d2:	4293      	cmp	r3, r2
 80027d4:	bfc4      	itt	gt
 80027d6:	1a9b      	subgt	r3, r3, r2
 80027d8:	18ed      	addgt	r5, r5, r3
 80027da:	f04f 0900 	mov.w	r9, #0
 80027de:	341a      	adds	r4, #26
 80027e0:	454d      	cmp	r5, r9
 80027e2:	d11a      	bne.n	800281a <_printf_common+0xd6>
 80027e4:	2000      	movs	r0, #0
 80027e6:	e008      	b.n	80027fa <_printf_common+0xb6>
 80027e8:	2301      	movs	r3, #1
 80027ea:	4652      	mov	r2, sl
 80027ec:	4639      	mov	r1, r7
 80027ee:	4630      	mov	r0, r6
 80027f0:	47c0      	blx	r8
 80027f2:	3001      	adds	r0, #1
 80027f4:	d103      	bne.n	80027fe <_printf_common+0xba>
 80027f6:	f04f 30ff 	mov.w	r0, #4294967295
 80027fa:	e8bd 87f0 	ldmia.w	sp!, {r4, r5, r6, r7, r8, r9, sl, pc}
 80027fe:	3501      	adds	r5, #1
 8002800:	e7c3      	b.n	800278a <_printf_common+0x46>
 8002802:	18e1      	adds	r1, r4, r3
 8002804:	1c5a      	adds	r2, r3, #1
 8002806:	2030      	movs	r0, #48	; 0x30
 8002808:	f881 0043 	strb.w	r0, [r1, #67]	; 0x43
 800280c:	4422      	add	r2, r4
 800280e:	f894 1045 	ldrb.w	r1, [r4, #69]	; 0x45
 8002812:	f882 1043 	strb.w	r1, [r2, #67]	; 0x43
 8002816:	3302      	adds	r3, #2
 8002818:	e7c5      	b.n	80027a6 <_printf_common+0x62>
 800281a:	2301      	movs	r3, #1
 800281c:	4622      	mov	r2, r4
 800281e:	4639      	mov	r1, r7
 8002820:	4630      	mov	r0, r6
 8002822:	47c0      	blx	r8
 8002824:	3001      	adds	r0, #1
 8002826:	d0e6      	beq.n	80027f6 <_printf_common+0xb2>
 8002828:	f109 0901 	add.w	r9, r9, #1
 800282c:	e7d8      	b.n	80027e0 <_printf_common+0x9c>
	...

08002830 <_printf_i>:
 8002830:	e92d 43f0 	stmdb	sp!, {r4, r5, r6, r7, r8, r9, lr}
 8002834:	f101 0c43 	add.w	ip, r1, #67	; 0x43
 8002838:	460c      	mov	r4, r1
 800283a:	7e09      	ldrb	r1, [r1, #24]
 800283c:	b085      	sub	sp, #20
 800283e:	296e      	cmp	r1, #110	; 0x6e
 8002840:	4617      	mov	r7, r2
 8002842:	4606      	mov	r6, r0
 8002844:	4698      	mov	r8, r3
 8002846:	9a0c      	ldr	r2, [sp, #48]	; 0x30
 8002848:	f000 80b3 	beq.w	80029b2 <_printf_i+0x182>
 800284c:	d822      	bhi.n	8002894 <_printf_i+0x64>
 800284e:	2963      	cmp	r1, #99	; 0x63
 8002850:	d036      	beq.n	80028c0 <_printf_i+0x90>
 8002852:	d80a      	bhi.n	800286a <_printf_i+0x3a>
 8002854:	2900      	cmp	r1, #0
 8002856:	f000 80b9 	beq.w	80029cc <_printf_i+0x19c>
 800285a:	2958      	cmp	r1, #88	; 0x58
 800285c:	f000 8083 	beq.w	8002966 <_printf_i+0x136>
 8002860:	f104 0542 	add.w	r5, r4, #66	; 0x42
 8002864:	f884 1042 	strb.w	r1, [r4, #66]	; 0x42
 8002868:	e032      	b.n	80028d0 <_printf_i+0xa0>
 800286a:	2964      	cmp	r1, #100	; 0x64
 800286c:	d001      	beq.n	8002872 <_printf_i+0x42>
 800286e:	2969      	cmp	r1, #105	; 0x69
 8002870:	d1f6      	bne.n	8002860 <_printf_i+0x30>
 8002872:	6820      	ldr	r0, [r4, #0]
 8002874:	6813      	ldr	r3, [r2, #0]
 8002876:	0605      	lsls	r5, r0, #24
 8002878:	f103 0104 	add.w	r1, r3, #4
 800287c:	d52a      	bpl.n	80028d4 <_printf_i+0xa4>
 800287e:	681b      	ldr	r3, [r3, #0]
 8002880:	6011      	str	r1, [r2, #0]
 8002882:	2b00      	cmp	r3, #0
 8002884:	da03      	bge.n	800288e <_printf_i+0x5e>
 8002886:	222d      	movs	r2, #45	; 0x2d
 8002888:	425b      	negs	r3, r3
 800288a:	f884 2043 	strb.w	r2, [r4, #67]	; 0x43
 800288e:	486f      	ldr	r0, [pc, #444]	; (8002a4c <_printf_i+0x21c>)
 8002890:	220a      	movs	r2, #10
 8002892:	e039      	b.n	8002908 <_printf_i+0xd8>
 8002894:	2973      	cmp	r1, #115	; 0x73
 8002896:	f000 809d 	beq.w	80029d4 <_printf_i+0x1a4>
 800289a:	d808      	bhi.n	80028ae <_printf_i+0x7e>
 800289c:	296f      	cmp	r1, #111	; 0x6f
 800289e:	d020      	beq.n	80028e2 <_printf_i+0xb2>
 80028a0:	2970      	cmp	r1, #112	; 0x70
 80028a2:	d1dd      	bne.n	8002860 <_printf_i+0x30>
 80028a4:	6823      	ldr	r3, [r4, #0]
 80028a6:	f043 0320 	orr.w	r3, r3, #32
 80028aa:	6023      	str	r3, [r4, #0]
 80028ac:	e003      	b.n	80028b6 <_printf_i+0x86>
 80028ae:	2975      	cmp	r1, #117	; 0x75
 80028b0:	d017      	beq.n	80028e2 <_printf_i+0xb2>
 80028b2:	2978      	cmp	r1, #120	; 0x78
 80028b4:	d1d4      	bne.n	8002860 <_printf_i+0x30>
 80028b6:	2378      	movs	r3, #120	; 0x78
 80028b8:	f884 3045 	strb.w	r3, [r4, #69]	; 0x45
 80028bc:	4864      	ldr	r0, [pc, #400]	; (8002a50 <_printf_i+0x220>)
 80028be:	e055      	b.n	800296c <_printf_i+0x13c>
 80028c0:	6813      	ldr	r3, [r2, #0]
 80028c2:	1d19      	adds	r1, r3, #4
 80028c4:	681b      	ldr	r3, [r3, #0]
 80028c6:	6011      	str	r1, [r2, #0]
 80028c8:	f104 0542 	add.w	r5, r4, #66	; 0x42
 80028cc:	f884 3042 	strb.w	r3, [r4, #66]	; 0x42
 80028d0:	2301      	movs	r3, #1
 80028d2:	e08c      	b.n	80029ee <_printf_i+0x1be>
 80028d4:	681b      	ldr	r3, [r3, #0]
 80028d6:	6011      	str	r1, [r2, #0]
 80028d8:	f010 0f40 	tst.w	r0, #64	; 0x40
 80028dc:	bf18      	it	ne
 80028de:	b21b      	sxthne	r3, r3
 80028e0:	e7cf      	b.n	8002882 <_printf_i+0x52>
 80028e2:	6813      	ldr	r3, [r2, #0]
 80028e4:	6825      	ldr	r5, [r4, #0]
 80028e6:	1d18      	adds	r0, r3, #4
 80028e8:	6010      	str	r0, [r2, #0]
 80028ea:	0628      	lsls	r0, r5, #24
 80028ec:	d501      	bpl.n	80028f2 <_printf_i+0xc2>
 80028ee:	681b      	ldr	r3, [r3, #0]
 80028f0:	e002      	b.n	80028f8 <_printf_i+0xc8>
 80028f2:	0668      	lsls	r0, r5, #25
 80028f4:	d5fb      	bpl.n	80028ee <_printf_i+0xbe>
 80028f6:	881b      	ldrh	r3, [r3, #0]
 80028f8:	4854      	ldr	r0, [pc, #336]	; (8002a4c <_printf_i+0x21c>)
 80028fa:	296f      	cmp	r1, #111	; 0x6f
 80028fc:	bf14      	ite	ne
 80028fe:	220a      	movne	r2, #10
 8002900:	2208      	moveq	r2, #8
 8002902:	2100      	movs	r1, #0
 8002904:	f884 1043 	strb.w	r1, [r4, #67]	; 0x43
 8002908:	6865      	ldr	r5, [r4, #4]
 800290a:	60a5      	str	r5, [r4, #8]
 800290c:	2d00      	cmp	r5, #0
 800290e:	f2c0 8095 	blt.w	8002a3c <_printf_i+0x20c>
 8002912:	6821      	ldr	r1, [r4, #0]
 8002914:	f021 0104 	bic.w	r1, r1, #4
 8002918:	6021      	str	r1, [r4, #0]
 800291a:	2b00      	cmp	r3, #0
 800291c:	d13d      	bne.n	800299a <_printf_i+0x16a>
 800291e:	2d00      	cmp	r5, #0
 8002920:	f040 808e 	bne.w	8002a40 <_printf_i+0x210>
 8002924:	4665      	mov	r5, ip
 8002926:	2a08      	cmp	r2, #8
 8002928:	d10b      	bne.n	8002942 <_printf_i+0x112>
 800292a:	6823      	ldr	r3, [r4, #0]
 800292c:	07db      	lsls	r3, r3, #31
 800292e:	d508      	bpl.n	8002942 <_printf_i+0x112>
 8002930:	6923      	ldr	r3, [r4, #16]
 8002932:	6862      	ldr	r2, [r4, #4]
 8002934:	429a      	cmp	r2, r3
 8002936:	bfde      	ittt	le
 8002938:	2330      	movle	r3, #48	; 0x30
 800293a:	f805 3c01 	strble.w	r3, [r5, #-1]
 800293e:	f105 35ff 	addle.w	r5, r5, #4294967295
 8002942:	ebac 0305 	sub.w	r3, ip, r5
 8002946:	6123      	str	r3, [r4, #16]
 8002948:	f8cd 8000 	str.w	r8, [sp]
 800294c:	463b      	mov	r3, r7
 800294e:	aa03      	add	r2, sp, #12
 8002950:	4621      	mov	r1, r4
 8002952:	4630      	mov	r0, r6
 8002954:	f7ff fef6 	bl	8002744 <_printf_common>
 8002958:	3001      	adds	r0, #1
 800295a:	d14d      	bne.n	80029f8 <_printf_i+0x1c8>
 800295c:	f04f 30ff 	mov.w	r0, #4294967295
 8002960:	b005      	add	sp, #20
 8002962:	e8bd 83f0 	ldmia.w	sp!, {r4, r5, r6, r7, r8, r9, pc}
 8002966:	4839      	ldr	r0, [pc, #228]	; (8002a4c <_printf_i+0x21c>)
 8002968:	f884 1045 	strb.w	r1, [r4, #69]	; 0x45
 800296c:	6813      	ldr	r3, [r2, #0]
 800296e:	6821      	ldr	r1, [r4, #0]
 8002970:	1d1d      	adds	r5, r3, #4
 8002972:	681b      	ldr	r3, [r3, #0]
 8002974:	6015      	str	r5, [r2, #0]
 8002976:	060a      	lsls	r2, r1, #24
 8002978:	d50b      	bpl.n	8002992 <_printf_i+0x162>
 800297a:	07ca      	lsls	r2, r1, #31
 800297c:	bf44      	itt	mi
 800297e:	f041 0120 	orrmi.w	r1, r1, #32
 8002982:	6021      	strmi	r1, [r4, #0]
 8002984:	b91b      	cbnz	r3, 800298e <_printf_i+0x15e>
 8002986:	6822      	ldr	r2, [r4, #0]
 8002988:	f022 0220 	bic.w	r2, r2, #32
 800298c:	6022      	str	r2, [r4, #0]
 800298e:	2210      	movs	r2, #16
 8002990:	e7b7      	b.n	8002902 <_printf_i+0xd2>
 8002992:	064d      	lsls	r5, r1, #25
 8002994:	bf48      	it	mi
 8002996:	b29b      	uxthmi	r3, r3
 8002998:	e7ef      	b.n	800297a <_printf_i+0x14a>
 800299a:	4665      	mov	r5, ip
 800299c:	fbb3 f1f2 	udiv	r1, r3, r2
 80029a0:	fb02 3311 	mls	r3, r2, r1, r3
 80029a4:	5cc3      	ldrb	r3, [r0, r3]
 80029a6:	f805 3d01 	strb.w	r3, [r5, #-1]!
 80029aa:	460b      	mov	r3, r1
 80029ac:	2900      	cmp	r1, #0
 80029ae:	d1f5      	bne.n	800299c <_printf_i+0x16c>
 80029b0:	e7b9      	b.n	8002926 <_printf_i+0xf6>
 80029b2:	6813      	ldr	r3, [r2, #0]
 80029b4:	6825      	ldr	r5, [r4, #0]
 80029b6:	6961      	ldr	r1, [r4, #20]
 80029b8:	1d18      	adds	r0, r3, #4
 80029ba:	6010      	str	r0, [r2, #0]
 80029bc:	0628      	lsls	r0, r5, #24
 80029be:	681b      	ldr	r3, [r3, #0]
 80029c0:	d501      	bpl.n	80029c6 <_printf_i+0x196>
 80029c2:	6019      	str	r1, [r3, #0]
 80029c4:	e002      	b.n	80029cc <_printf_i+0x19c>
 80029c6:	066a      	lsls	r2, r5, #25
 80029c8:	d5fb      	bpl.n	80029c2 <_printf_i+0x192>
 80029ca:	8019      	strh	r1, [r3, #0]
 80029cc:	2300      	movs	r3, #0
 80029ce:	6123      	str	r3, [r4, #16]
 80029d0:	4665      	mov	r5, ip
 80029d2:	e7b9      	b.n	8002948 <_printf_i+0x118>
 80029d4:	6813      	ldr	r3, [r2, #0]
 80029d6:	1d19      	adds	r1, r3, #4
 80029d8:	6011      	str	r1, [r2, #0]
 80029da:	681d      	ldr	r5, [r3, #0]
 80029dc:	6862      	ldr	r2, [r4, #4]
 80029de:	2100      	movs	r1, #0
 80029e0:	4628      	mov	r0, r5
 80029e2:	f7fd fc15 	bl	8000210 <memchr>
 80029e6:	b108      	cbz	r0, 80029ec <_printf_i+0x1bc>
 80029e8:	1b40      	subs	r0, r0, r5
 80029ea:	6060      	str	r0, [r4, #4]
 80029ec:	6863      	ldr	r3, [r4, #4]
 80029ee:	6123      	str	r3, [r4, #16]
 80029f0:	2300      	movs	r3, #0
 80029f2:	f884 3043 	strb.w	r3, [r4, #67]	; 0x43
 80029f6:	e7a7      	b.n	8002948 <_printf_i+0x118>
 80029f8:	6923      	ldr	r3, [r4, #16]
 80029fa:	462a      	mov	r2, r5
 80029fc:	4639      	mov	r1, r7
 80029fe:	4630      	mov	r0, r6
 8002a00:	47c0      	blx	r8
 8002a02:	3001      	adds	r0, #1
 8002a04:	d0aa      	beq.n	800295c <_printf_i+0x12c>
 8002a06:	6823      	ldr	r3, [r4, #0]
 8002a08:	079b      	lsls	r3, r3, #30
 8002a0a:	d413      	bmi.n	8002a34 <_printf_i+0x204>
 8002a0c:	68e0      	ldr	r0, [r4, #12]
 8002a0e:	9b03      	ldr	r3, [sp, #12]
 8002a10:	4298      	cmp	r0, r3
 8002a12:	bfb8      	it	lt
 8002a14:	4618      	movlt	r0, r3
 8002a16:	e7a3      	b.n	8002960 <_printf_i+0x130>
 8002a18:	2301      	movs	r3, #1
 8002a1a:	464a      	mov	r2, r9
 8002a1c:	4639      	mov	r1, r7
 8002a1e:	4630      	mov	r0, r6
 8002a20:	47c0      	blx	r8
 8002a22:	3001      	adds	r0, #1
 8002a24:	d09a      	beq.n	800295c <_printf_i+0x12c>
 8002a26:	3501      	adds	r5, #1
 8002a28:	68e3      	ldr	r3, [r4, #12]
 8002a2a:	9a03      	ldr	r2, [sp, #12]
 8002a2c:	1a9b      	subs	r3, r3, r2
 8002a2e:	42ab      	cmp	r3, r5
 8002a30:	dcf2      	bgt.n	8002a18 <_printf_i+0x1e8>
 8002a32:	e7eb      	b.n	8002a0c <_printf_i+0x1dc>
 8002a34:	2500      	movs	r5, #0
 8002a36:	f104 0919 	add.w	r9, r4, #25
 8002a3a:	e7f5      	b.n	8002a28 <_printf_i+0x1f8>
 8002a3c:	2b00      	cmp	r3, #0
 8002a3e:	d1ac      	bne.n	800299a <_printf_i+0x16a>
 8002a40:	7803      	ldrb	r3, [r0, #0]
 8002a42:	f884 3042 	strb.w	r3, [r4, #66]	; 0x42
 8002a46:	f104 0542 	add.w	r5, r4, #66	; 0x42
 8002a4a:	e76c      	b.n	8002926 <_printf_i+0xf6>
 8002a4c:	0800301d 	.word	0x0800301d
 8002a50:	0800302e 	.word	0x0800302e

08002a54 <__sread>:
 8002a54:	b510      	push	{r4, lr}
 8002a56:	460c      	mov	r4, r1
 8002a58:	f9b1 100e 	ldrsh.w	r1, [r1, #14]
 8002a5c:	f000 fa46 	bl	8002eec <_read_r>
 8002a60:	2800      	cmp	r0, #0
 8002a62:	bfab      	itete	ge
 8002a64:	6d63      	ldrge	r3, [r4, #84]	; 0x54
 8002a66:	89a3      	ldrhlt	r3, [r4, #12]
 8002a68:	181b      	addge	r3, r3, r0
 8002a6a:	f423 5380 	biclt.w	r3, r3, #4096	; 0x1000
 8002a6e:	bfac      	ite	ge
 8002a70:	6563      	strge	r3, [r4, #84]	; 0x54
 8002a72:	81a3      	strhlt	r3, [r4, #12]
 8002a74:	bd10      	pop	{r4, pc}

08002a76 <__swrite>:
 8002a76:	e92d 41f0 	stmdb	sp!, {r4, r5, r6, r7, r8, lr}
 8002a7a:	461f      	mov	r7, r3
 8002a7c:	898b      	ldrh	r3, [r1, #12]
 8002a7e:	05db      	lsls	r3, r3, #23
 8002a80:	4605      	mov	r5, r0
 8002a82:	460c      	mov	r4, r1
 8002a84:	4616      	mov	r6, r2
 8002a86:	d505      	bpl.n	8002a94 <__swrite+0x1e>
 8002a88:	2302      	movs	r3, #2
 8002a8a:	2200      	movs	r2, #0
 8002a8c:	f9b1 100e 	ldrsh.w	r1, [r1, #14]
 8002a90:	f000 f9b6 	bl	8002e00 <_lseek_r>
 8002a94:	89a3      	ldrh	r3, [r4, #12]
 8002a96:	f9b4 100e 	ldrsh.w	r1, [r4, #14]
 8002a9a:	f423 5380 	bic.w	r3, r3, #4096	; 0x1000
 8002a9e:	81a3      	strh	r3, [r4, #12]
 8002aa0:	4632      	mov	r2, r6
 8002aa2:	463b      	mov	r3, r7
 8002aa4:	4628      	mov	r0, r5
 8002aa6:	e8bd 41f0 	ldmia.w	sp!, {r4, r5, r6, r7, r8, lr}
 8002aaa:	f000 b869 	b.w	8002b80 <_write_r>

08002aae <__sseek>:
 8002aae:	b510      	push	{r4, lr}
 8002ab0:	460c      	mov	r4, r1
 8002ab2:	f9b1 100e 	ldrsh.w	r1, [r1, #14]
 8002ab6:	f000 f9a3 	bl	8002e00 <_lseek_r>
 8002aba:	1c43      	adds	r3, r0, #1
 8002abc:	89a3      	ldrh	r3, [r4, #12]
 8002abe:	bf15      	itete	ne
 8002ac0:	6560      	strne	r0, [r4, #84]	; 0x54
 8002ac2:	f423 5380 	biceq.w	r3, r3, #4096	; 0x1000
 8002ac6:	f443 5380 	orrne.w	r3, r3, #4096	; 0x1000
 8002aca:	81a3      	strheq	r3, [r4, #12]
 8002acc:	bf18      	it	ne
 8002ace:	81a3      	strhne	r3, [r4, #12]
 8002ad0:	bd10      	pop	{r4, pc}

08002ad2 <__sclose>:
 8002ad2:	f9b1 100e 	ldrsh.w	r1, [r1, #14]
 8002ad6:	f000 b8d3 	b.w	8002c80 <_close_r>
	...

08002adc <__swbuf_r>:
 8002adc:	b5f8      	push	{r3, r4, r5, r6, r7, lr}
 8002ade:	460e      	mov	r6, r1
 8002ae0:	4614      	mov	r4, r2
 8002ae2:	4605      	mov	r5, r0
 8002ae4:	b118      	cbz	r0, 8002aee <__swbuf_r+0x12>
 8002ae6:	6983      	ldr	r3, [r0, #24]
 8002ae8:	b90b      	cbnz	r3, 8002aee <__swbuf_r+0x12>
 8002aea:	f7ff fc5f 	bl	80023ac <__sinit>
 8002aee:	4b21      	ldr	r3, [pc, #132]	; (8002b74 <__swbuf_r+0x98>)
 8002af0:	429c      	cmp	r4, r3
 8002af2:	d12a      	bne.n	8002b4a <__swbuf_r+0x6e>
 8002af4:	686c      	ldr	r4, [r5, #4]
 8002af6:	69a3      	ldr	r3, [r4, #24]
 8002af8:	60a3      	str	r3, [r4, #8]
 8002afa:	89a3      	ldrh	r3, [r4, #12]
 8002afc:	071a      	lsls	r2, r3, #28
 8002afe:	d52e      	bpl.n	8002b5e <__swbuf_r+0x82>
 8002b00:	6923      	ldr	r3, [r4, #16]
 8002b02:	b363      	cbz	r3, 8002b5e <__swbuf_r+0x82>
 8002b04:	6923      	ldr	r3, [r4, #16]
 8002b06:	6820      	ldr	r0, [r4, #0]
 8002b08:	1ac0      	subs	r0, r0, r3
 8002b0a:	6963      	ldr	r3, [r4, #20]
 8002b0c:	b2f6      	uxtb	r6, r6
 8002b0e:	4283      	cmp	r3, r0
 8002b10:	4637      	mov	r7, r6
 8002b12:	dc04      	bgt.n	8002b1e <__swbuf_r+0x42>
 8002b14:	4621      	mov	r1, r4
 8002b16:	4628      	mov	r0, r5
 8002b18:	f000 f948 	bl	8002dac <_fflush_r>
 8002b1c:	bb28      	cbnz	r0, 8002b6a <__swbuf_r+0x8e>
 8002b1e:	68a3      	ldr	r3, [r4, #8]
 8002b20:	3b01      	subs	r3, #1
 8002b22:	60a3      	str	r3, [r4, #8]
 8002b24:	6823      	ldr	r3, [r4, #0]
 8002b26:	1c5a      	adds	r2, r3, #1
 8002b28:	6022      	str	r2, [r4, #0]
 8002b2a:	701e      	strb	r6, [r3, #0]
 8002b2c:	6963      	ldr	r3, [r4, #20]
 8002b2e:	3001      	adds	r0, #1
 8002b30:	4283      	cmp	r3, r0
 8002b32:	d004      	beq.n	8002b3e <__swbuf_r+0x62>
 8002b34:	89a3      	ldrh	r3, [r4, #12]
 8002b36:	07db      	lsls	r3, r3, #31
 8002b38:	d519      	bpl.n	8002b6e <__swbuf_r+0x92>
 8002b3a:	2e0a      	cmp	r6, #10
 8002b3c:	d117      	bne.n	8002b6e <__swbuf_r+0x92>
 8002b3e:	4621      	mov	r1, r4
 8002b40:	4628      	mov	r0, r5
 8002b42:	f000 f933 	bl	8002dac <_fflush_r>
 8002b46:	b190      	cbz	r0, 8002b6e <__swbuf_r+0x92>
 8002b48:	e00f      	b.n	8002b6a <__swbuf_r+0x8e>
 8002b4a:	4b0b      	ldr	r3, [pc, #44]	; (8002b78 <__swbuf_r+0x9c>)
 8002b4c:	429c      	cmp	r4, r3
 8002b4e:	d101      	bne.n	8002b54 <__swbuf_r+0x78>
 8002b50:	68ac      	ldr	r4, [r5, #8]
 8002b52:	e7d0      	b.n	8002af6 <__swbuf_r+0x1a>
 8002b54:	4b09      	ldr	r3, [pc, #36]	; (8002b7c <__swbuf_r+0xa0>)
 8002b56:	429c      	cmp	r4, r3
 8002b58:	bf08      	it	eq
 8002b5a:	68ec      	ldreq	r4, [r5, #12]
 8002b5c:	e7cb      	b.n	8002af6 <__swbuf_r+0x1a>
 8002b5e:	4621      	mov	r1, r4
 8002b60:	4628      	mov	r0, r5
 8002b62:	f000 f81f 	bl	8002ba4 <__swsetup_r>
 8002b66:	2800      	cmp	r0, #0
 8002b68:	d0cc      	beq.n	8002b04 <__swbuf_r+0x28>
 8002b6a:	f04f 37ff 	mov.w	r7, #4294967295
 8002b6e:	4638      	mov	r0, r7
 8002b70:	bdf8      	pop	{r3, r4, r5, r6, r7, pc}
 8002b72:	bf00      	nop
 8002b74:	08002fcc 	.word	0x08002fcc
 8002b78:	08002fec 	.word	0x08002fec
 8002b7c:	08002fac 	.word	0x08002fac

08002b80 <_write_r>:
 8002b80:	b538      	push	{r3, r4, r5, lr}
 8002b82:	4c07      	ldr	r4, [pc, #28]	; (8002ba0 <_write_r+0x20>)
 8002b84:	4605      	mov	r5, r0
 8002b86:	4608      	mov	r0, r1
 8002b88:	4611      	mov	r1, r2
 8002b8a:	2200      	movs	r2, #0
 8002b8c:	6022      	str	r2, [r4, #0]
 8002b8e:	461a      	mov	r2, r3
 8002b90:	f7fd ffec 	bl	8000b6c <_write>
 8002b94:	1c43      	adds	r3, r0, #1
 8002b96:	d102      	bne.n	8002b9e <_write_r+0x1e>
 8002b98:	6823      	ldr	r3, [r4, #0]
 8002b9a:	b103      	cbz	r3, 8002b9e <_write_r+0x1e>
 8002b9c:	602b      	str	r3, [r5, #0]
 8002b9e:	bd38      	pop	{r3, r4, r5, pc}
 8002ba0:	200001c0 	.word	0x200001c0

08002ba4 <__swsetup_r>:
 8002ba4:	4b32      	ldr	r3, [pc, #200]	; (8002c70 <__swsetup_r+0xcc>)
 8002ba6:	b570      	push	{r4, r5, r6, lr}
 8002ba8:	681d      	ldr	r5, [r3, #0]
 8002baa:	4606      	mov	r6, r0
 8002bac:	460c      	mov	r4, r1
 8002bae:	b125      	cbz	r5, 8002bba <__swsetup_r+0x16>
 8002bb0:	69ab      	ldr	r3, [r5, #24]
 8002bb2:	b913      	cbnz	r3, 8002bba <__swsetup_r+0x16>
 8002bb4:	4628      	mov	r0, r5
 8002bb6:	f7ff fbf9 	bl	80023ac <__sinit>
 8002bba:	4b2e      	ldr	r3, [pc, #184]	; (8002c74 <__swsetup_r+0xd0>)
 8002bbc:	429c      	cmp	r4, r3
 8002bbe:	d10f      	bne.n	8002be0 <__swsetup_r+0x3c>
 8002bc0:	686c      	ldr	r4, [r5, #4]
 8002bc2:	f9b4 300c 	ldrsh.w	r3, [r4, #12]
 8002bc6:	b29a      	uxth	r2, r3
 8002bc8:	0715      	lsls	r5, r2, #28
 8002bca:	d42c      	bmi.n	8002c26 <__swsetup_r+0x82>
 8002bcc:	06d0      	lsls	r0, r2, #27
 8002bce:	d411      	bmi.n	8002bf4 <__swsetup_r+0x50>
 8002bd0:	2209      	movs	r2, #9
 8002bd2:	6032      	str	r2, [r6, #0]
 8002bd4:	f043 0340 	orr.w	r3, r3, #64	; 0x40
 8002bd8:	81a3      	strh	r3, [r4, #12]
 8002bda:	f04f 30ff 	mov.w	r0, #4294967295
 8002bde:	e03e      	b.n	8002c5e <__swsetup_r+0xba>
 8002be0:	4b25      	ldr	r3, [pc, #148]	; (8002c78 <__swsetup_r+0xd4>)
 8002be2:	429c      	cmp	r4, r3
 8002be4:	d101      	bne.n	8002bea <__swsetup_r+0x46>
 8002be6:	68ac      	ldr	r4, [r5, #8]
 8002be8:	e7eb      	b.n	8002bc2 <__swsetup_r+0x1e>
 8002bea:	4b24      	ldr	r3, [pc, #144]	; (8002c7c <__swsetup_r+0xd8>)
 8002bec:	429c      	cmp	r4, r3
 8002bee:	bf08      	it	eq
 8002bf0:	68ec      	ldreq	r4, [r5, #12]
 8002bf2:	e7e6      	b.n	8002bc2 <__swsetup_r+0x1e>
 8002bf4:	0751      	lsls	r1, r2, #29
 8002bf6:	d512      	bpl.n	8002c1e <__swsetup_r+0x7a>
 8002bf8:	6b61      	ldr	r1, [r4, #52]	; 0x34
 8002bfa:	b141      	cbz	r1, 8002c0e <__swsetup_r+0x6a>
 8002bfc:	f104 0344 	add.w	r3, r4, #68	; 0x44
 8002c00:	4299      	cmp	r1, r3
 8002c02:	d002      	beq.n	8002c0a <__swsetup_r+0x66>
 8002c04:	4630      	mov	r0, r6
 8002c06:	f7ff fac1 	bl	800218c <_free_r>
 8002c0a:	2300      	movs	r3, #0
 8002c0c:	6363      	str	r3, [r4, #52]	; 0x34
 8002c0e:	89a3      	ldrh	r3, [r4, #12]
 8002c10:	f023 0324 	bic.w	r3, r3, #36	; 0x24
 8002c14:	81a3      	strh	r3, [r4, #12]
 8002c16:	2300      	movs	r3, #0
 8002c18:	6063      	str	r3, [r4, #4]
 8002c1a:	6923      	ldr	r3, [r4, #16]
 8002c1c:	6023      	str	r3, [r4, #0]
 8002c1e:	89a3      	ldrh	r3, [r4, #12]
 8002c20:	f043 0308 	orr.w	r3, r3, #8
 8002c24:	81a3      	strh	r3, [r4, #12]
 8002c26:	6923      	ldr	r3, [r4, #16]
 8002c28:	b94b      	cbnz	r3, 8002c3e <__swsetup_r+0x9a>
 8002c2a:	89a3      	ldrh	r3, [r4, #12]
 8002c2c:	f403 7320 	and.w	r3, r3, #640	; 0x280
 8002c30:	f5b3 7f00 	cmp.w	r3, #512	; 0x200
 8002c34:	d003      	beq.n	8002c3e <__swsetup_r+0x9a>
 8002c36:	4621      	mov	r1, r4
 8002c38:	4630      	mov	r0, r6
 8002c3a:	f000 f917 	bl	8002e6c <__smakebuf_r>
 8002c3e:	89a2      	ldrh	r2, [r4, #12]
 8002c40:	f012 0301 	ands.w	r3, r2, #1
 8002c44:	d00c      	beq.n	8002c60 <__swsetup_r+0xbc>
 8002c46:	2300      	movs	r3, #0
 8002c48:	60a3      	str	r3, [r4, #8]
 8002c4a:	6963      	ldr	r3, [r4, #20]
 8002c4c:	425b      	negs	r3, r3
 8002c4e:	61a3      	str	r3, [r4, #24]
 8002c50:	6923      	ldr	r3, [r4, #16]
 8002c52:	b953      	cbnz	r3, 8002c6a <__swsetup_r+0xc6>
 8002c54:	f9b4 300c 	ldrsh.w	r3, [r4, #12]
 8002c58:	f013 0080 	ands.w	r0, r3, #128	; 0x80
 8002c5c:	d1ba      	bne.n	8002bd4 <__swsetup_r+0x30>
 8002c5e:	bd70      	pop	{r4, r5, r6, pc}
 8002c60:	0792      	lsls	r2, r2, #30
 8002c62:	bf58      	it	pl
 8002c64:	6963      	ldrpl	r3, [r4, #20]
 8002c66:	60a3      	str	r3, [r4, #8]
 8002c68:	e7f2      	b.n	8002c50 <__swsetup_r+0xac>
 8002c6a:	2000      	movs	r0, #0
 8002c6c:	e7f7      	b.n	8002c5e <__swsetup_r+0xba>
 8002c6e:	bf00      	nop
 8002c70:	2000000c 	.word	0x2000000c
 8002c74:	08002fcc 	.word	0x08002fcc
 8002c78:	08002fec 	.word	0x08002fec
 8002c7c:	08002fac 	.word	0x08002fac

08002c80 <_close_r>:
 8002c80:	b538      	push	{r3, r4, r5, lr}
 8002c82:	4c06      	ldr	r4, [pc, #24]	; (8002c9c <_close_r+0x1c>)
 8002c84:	2300      	movs	r3, #0
 8002c86:	4605      	mov	r5, r0
 8002c88:	4608      	mov	r0, r1
 8002c8a:	6023      	str	r3, [r4, #0]
 8002c8c:	f7fd ff7c 	bl	8000b88 <_close>
 8002c90:	1c43      	adds	r3, r0, #1
 8002c92:	d102      	bne.n	8002c9a <_close_r+0x1a>
 8002c94:	6823      	ldr	r3, [r4, #0]
 8002c96:	b103      	cbz	r3, 8002c9a <_close_r+0x1a>
 8002c98:	602b      	str	r3, [r5, #0]
 8002c9a:	bd38      	pop	{r3, r4, r5, pc}
 8002c9c:	200001c0 	.word	0x200001c0

08002ca0 <__sflush_r>:
 8002ca0:	898a      	ldrh	r2, [r1, #12]
 8002ca2:	e92d 41f0 	stmdb	sp!, {r4, r5, r6, r7, r8, lr}
 8002ca6:	4605      	mov	r5, r0
 8002ca8:	0710      	lsls	r0, r2, #28
 8002caa:	460c      	mov	r4, r1
 8002cac:	d458      	bmi.n	8002d60 <__sflush_r+0xc0>
 8002cae:	684b      	ldr	r3, [r1, #4]
 8002cb0:	2b00      	cmp	r3, #0
 8002cb2:	dc05      	bgt.n	8002cc0 <__sflush_r+0x20>
 8002cb4:	6c0b      	ldr	r3, [r1, #64]	; 0x40
 8002cb6:	2b00      	cmp	r3, #0
 8002cb8:	dc02      	bgt.n	8002cc0 <__sflush_r+0x20>
 8002cba:	2000      	movs	r0, #0
 8002cbc:	e8bd 81f0 	ldmia.w	sp!, {r4, r5, r6, r7, r8, pc}
 8002cc0:	6ae6      	ldr	r6, [r4, #44]	; 0x2c
 8002cc2:	2e00      	cmp	r6, #0
 8002cc4:	d0f9      	beq.n	8002cba <__sflush_r+0x1a>
 8002cc6:	2300      	movs	r3, #0
 8002cc8:	f412 5280 	ands.w	r2, r2, #4096	; 0x1000
 8002ccc:	682f      	ldr	r7, [r5, #0]
 8002cce:	6a21      	ldr	r1, [r4, #32]
 8002cd0:	602b      	str	r3, [r5, #0]
 8002cd2:	d032      	beq.n	8002d3a <__sflush_r+0x9a>
 8002cd4:	6d60      	ldr	r0, [r4, #84]	; 0x54
 8002cd6:	89a3      	ldrh	r3, [r4, #12]
 8002cd8:	075a      	lsls	r2, r3, #29
 8002cda:	d505      	bpl.n	8002ce8 <__sflush_r+0x48>
 8002cdc:	6863      	ldr	r3, [r4, #4]
 8002cde:	1ac0      	subs	r0, r0, r3
 8002ce0:	6b63      	ldr	r3, [r4, #52]	; 0x34
 8002ce2:	b10b      	cbz	r3, 8002ce8 <__sflush_r+0x48>
 8002ce4:	6c23      	ldr	r3, [r4, #64]	; 0x40
 8002ce6:	1ac0      	subs	r0, r0, r3
 8002ce8:	2300      	movs	r3, #0
 8002cea:	4602      	mov	r2, r0
 8002cec:	6ae6      	ldr	r6, [r4, #44]	; 0x2c
 8002cee:	6a21      	ldr	r1, [r4, #32]
 8002cf0:	4628      	mov	r0, r5
 8002cf2:	47b0      	blx	r6
 8002cf4:	1c43      	adds	r3, r0, #1
 8002cf6:	89a3      	ldrh	r3, [r4, #12]
 8002cf8:	d106      	bne.n	8002d08 <__sflush_r+0x68>
 8002cfa:	6829      	ldr	r1, [r5, #0]
 8002cfc:	291d      	cmp	r1, #29
 8002cfe:	d848      	bhi.n	8002d92 <__sflush_r+0xf2>
 8002d00:	4a29      	ldr	r2, [pc, #164]	; (8002da8 <__sflush_r+0x108>)
 8002d02:	40ca      	lsrs	r2, r1
 8002d04:	07d6      	lsls	r6, r2, #31
 8002d06:	d544      	bpl.n	8002d92 <__sflush_r+0xf2>
 8002d08:	2200      	movs	r2, #0
 8002d0a:	6062      	str	r2, [r4, #4]
 8002d0c:	04d9      	lsls	r1, r3, #19
 8002d0e:	6922      	ldr	r2, [r4, #16]
 8002d10:	6022      	str	r2, [r4, #0]
 8002d12:	d504      	bpl.n	8002d1e <__sflush_r+0x7e>
 8002d14:	1c42      	adds	r2, r0, #1
 8002d16:	d101      	bne.n	8002d1c <__sflush_r+0x7c>
 8002d18:	682b      	ldr	r3, [r5, #0]
 8002d1a:	b903      	cbnz	r3, 8002d1e <__sflush_r+0x7e>
 8002d1c:	6560      	str	r0, [r4, #84]	; 0x54
 8002d1e:	6b61      	ldr	r1, [r4, #52]	; 0x34
 8002d20:	602f      	str	r7, [r5, #0]
 8002d22:	2900      	cmp	r1, #0
 8002d24:	d0c9      	beq.n	8002cba <__sflush_r+0x1a>
 8002d26:	f104 0344 	add.w	r3, r4, #68	; 0x44
 8002d2a:	4299      	cmp	r1, r3
 8002d2c:	d002      	beq.n	8002d34 <__sflush_r+0x94>
 8002d2e:	4628      	mov	r0, r5
 8002d30:	f7ff fa2c 	bl	800218c <_free_r>
 8002d34:	2000      	movs	r0, #0
 8002d36:	6360      	str	r0, [r4, #52]	; 0x34
 8002d38:	e7c0      	b.n	8002cbc <__sflush_r+0x1c>
 8002d3a:	2301      	movs	r3, #1
 8002d3c:	4628      	mov	r0, r5
 8002d3e:	47b0      	blx	r6
 8002d40:	1c41      	adds	r1, r0, #1
 8002d42:	d1c8      	bne.n	8002cd6 <__sflush_r+0x36>
 8002d44:	682b      	ldr	r3, [r5, #0]
 8002d46:	2b00      	cmp	r3, #0
 8002d48:	d0c5      	beq.n	8002cd6 <__sflush_r+0x36>
 8002d4a:	2b1d      	cmp	r3, #29
 8002d4c:	d001      	beq.n	8002d52 <__sflush_r+0xb2>
 8002d4e:	2b16      	cmp	r3, #22
 8002d50:	d101      	bne.n	8002d56 <__sflush_r+0xb6>
 8002d52:	602f      	str	r7, [r5, #0]
 8002d54:	e7b1      	b.n	8002cba <__sflush_r+0x1a>
 8002d56:	89a3      	ldrh	r3, [r4, #12]
 8002d58:	f043 0340 	orr.w	r3, r3, #64	; 0x40
 8002d5c:	81a3      	strh	r3, [r4, #12]
 8002d5e:	e7ad      	b.n	8002cbc <__sflush_r+0x1c>
 8002d60:	690f      	ldr	r7, [r1, #16]
 8002d62:	2f00      	cmp	r7, #0
 8002d64:	d0a9      	beq.n	8002cba <__sflush_r+0x1a>
 8002d66:	0793      	lsls	r3, r2, #30
 8002d68:	680e      	ldr	r6, [r1, #0]
 8002d6a:	bf08      	it	eq
 8002d6c:	694b      	ldreq	r3, [r1, #20]
 8002d6e:	600f      	str	r7, [r1, #0]
 8002d70:	bf18      	it	ne
 8002d72:	2300      	movne	r3, #0
 8002d74:	eba6 0807 	sub.w	r8, r6, r7
 8002d78:	608b      	str	r3, [r1, #8]
 8002d7a:	f1b8 0f00 	cmp.w	r8, #0
 8002d7e:	dd9c      	ble.n	8002cba <__sflush_r+0x1a>
 8002d80:	4643      	mov	r3, r8
 8002d82:	463a      	mov	r2, r7
 8002d84:	6a21      	ldr	r1, [r4, #32]
 8002d86:	6aa6      	ldr	r6, [r4, #40]	; 0x28
 8002d88:	4628      	mov	r0, r5
 8002d8a:	47b0      	blx	r6
 8002d8c:	2800      	cmp	r0, #0
 8002d8e:	dc06      	bgt.n	8002d9e <__sflush_r+0xfe>
 8002d90:	89a3      	ldrh	r3, [r4, #12]
 8002d92:	f043 0340 	orr.w	r3, r3, #64	; 0x40
 8002d96:	81a3      	strh	r3, [r4, #12]
 8002d98:	f04f 30ff 	mov.w	r0, #4294967295
 8002d9c:	e78e      	b.n	8002cbc <__sflush_r+0x1c>
 8002d9e:	4407      	add	r7, r0
 8002da0:	eba8 0800 	sub.w	r8, r8, r0
 8002da4:	e7e9      	b.n	8002d7a <__sflush_r+0xda>
 8002da6:	bf00      	nop
 8002da8:	20400001 	.word	0x20400001

08002dac <_fflush_r>:
 8002dac:	b538      	push	{r3, r4, r5, lr}
 8002dae:	690b      	ldr	r3, [r1, #16]
 8002db0:	4605      	mov	r5, r0
 8002db2:	460c      	mov	r4, r1
 8002db4:	b1db      	cbz	r3, 8002dee <_fflush_r+0x42>
 8002db6:	b118      	cbz	r0, 8002dc0 <_fflush_r+0x14>
 8002db8:	6983      	ldr	r3, [r0, #24]
 8002dba:	b90b      	cbnz	r3, 8002dc0 <_fflush_r+0x14>
 8002dbc:	f7ff faf6 	bl	80023ac <__sinit>
 8002dc0:	4b0c      	ldr	r3, [pc, #48]	; (8002df4 <_fflush_r+0x48>)
 8002dc2:	429c      	cmp	r4, r3
 8002dc4:	d109      	bne.n	8002dda <_fflush_r+0x2e>
 8002dc6:	686c      	ldr	r4, [r5, #4]
 8002dc8:	f9b4 300c 	ldrsh.w	r3, [r4, #12]
 8002dcc:	b17b      	cbz	r3, 8002dee <_fflush_r+0x42>
 8002dce:	4621      	mov	r1, r4
 8002dd0:	4628      	mov	r0, r5
 8002dd2:	e8bd 4038 	ldmia.w	sp!, {r3, r4, r5, lr}
 8002dd6:	f7ff bf63 	b.w	8002ca0 <__sflush_r>
 8002dda:	4b07      	ldr	r3, [pc, #28]	; (8002df8 <_fflush_r+0x4c>)
 8002ddc:	429c      	cmp	r4, r3
 8002dde:	d101      	bne.n	8002de4 <_fflush_r+0x38>
 8002de0:	68ac      	ldr	r4, [r5, #8]
 8002de2:	e7f1      	b.n	8002dc8 <_fflush_r+0x1c>
 8002de4:	4b05      	ldr	r3, [pc, #20]	; (8002dfc <_fflush_r+0x50>)
 8002de6:	429c      	cmp	r4, r3
 8002de8:	bf08      	it	eq
 8002dea:	68ec      	ldreq	r4, [r5, #12]
 8002dec:	e7ec      	b.n	8002dc8 <_fflush_r+0x1c>
 8002dee:	2000      	movs	r0, #0
 8002df0:	bd38      	pop	{r3, r4, r5, pc}
 8002df2:	bf00      	nop
 8002df4:	08002fcc 	.word	0x08002fcc
 8002df8:	08002fec 	.word	0x08002fec
 8002dfc:	08002fac 	.word	0x08002fac

08002e00 <_lseek_r>:
 8002e00:	b538      	push	{r3, r4, r5, lr}
 8002e02:	4c07      	ldr	r4, [pc, #28]	; (8002e20 <_lseek_r+0x20>)
 8002e04:	4605      	mov	r5, r0
 8002e06:	4608      	mov	r0, r1
 8002e08:	4611      	mov	r1, r2
 8002e0a:	2200      	movs	r2, #0
 8002e0c:	6022      	str	r2, [r4, #0]
 8002e0e:	461a      	mov	r2, r3
 8002e10:	f7fd fec6 	bl	8000ba0 <_lseek>
 8002e14:	1c43      	adds	r3, r0, #1
 8002e16:	d102      	bne.n	8002e1e <_lseek_r+0x1e>
 8002e18:	6823      	ldr	r3, [r4, #0]
 8002e1a:	b103      	cbz	r3, 8002e1e <_lseek_r+0x1e>
 8002e1c:	602b      	str	r3, [r5, #0]
 8002e1e:	bd38      	pop	{r3, r4, r5, pc}
 8002e20:	200001c0 	.word	0x200001c0

08002e24 <__swhatbuf_r>:
 8002e24:	b570      	push	{r4, r5, r6, lr}
 8002e26:	460e      	mov	r6, r1
 8002e28:	f9b1 100e 	ldrsh.w	r1, [r1, #14]
 8002e2c:	2900      	cmp	r1, #0
 8002e2e:	b096      	sub	sp, #88	; 0x58
 8002e30:	4614      	mov	r4, r2
 8002e32:	461d      	mov	r5, r3
 8002e34:	da07      	bge.n	8002e46 <__swhatbuf_r+0x22>
 8002e36:	2300      	movs	r3, #0
 8002e38:	602b      	str	r3, [r5, #0]
 8002e3a:	89b3      	ldrh	r3, [r6, #12]
 8002e3c:	061a      	lsls	r2, r3, #24
 8002e3e:	d410      	bmi.n	8002e62 <__swhatbuf_r+0x3e>
 8002e40:	f44f 6380 	mov.w	r3, #1024	; 0x400
 8002e44:	e00e      	b.n	8002e64 <__swhatbuf_r+0x40>
 8002e46:	466a      	mov	r2, sp
 8002e48:	f000 f862 	bl	8002f10 <_fstat_r>
 8002e4c:	2800      	cmp	r0, #0
 8002e4e:	dbf2      	blt.n	8002e36 <__swhatbuf_r+0x12>
 8002e50:	9a01      	ldr	r2, [sp, #4]
 8002e52:	f402 4270 	and.w	r2, r2, #61440	; 0xf000
 8002e56:	f5a2 5300 	sub.w	r3, r2, #8192	; 0x2000
 8002e5a:	425a      	negs	r2, r3
 8002e5c:	415a      	adcs	r2, r3
 8002e5e:	602a      	str	r2, [r5, #0]
 8002e60:	e7ee      	b.n	8002e40 <__swhatbuf_r+0x1c>
 8002e62:	2340      	movs	r3, #64	; 0x40
 8002e64:	2000      	movs	r0, #0
 8002e66:	6023      	str	r3, [r4, #0]
 8002e68:	b016      	add	sp, #88	; 0x58
 8002e6a:	bd70      	pop	{r4, r5, r6, pc}

08002e6c <__smakebuf_r>:
 8002e6c:	898b      	ldrh	r3, [r1, #12]
 8002e6e:	b573      	push	{r0, r1, r4, r5, r6, lr}
 8002e70:	079d      	lsls	r5, r3, #30
 8002e72:	4606      	mov	r6, r0
 8002e74:	460c      	mov	r4, r1
 8002e76:	d507      	bpl.n	8002e88 <__smakebuf_r+0x1c>
 8002e78:	f104 0347 	add.w	r3, r4, #71	; 0x47
 8002e7c:	6023      	str	r3, [r4, #0]
 8002e7e:	6123      	str	r3, [r4, #16]
 8002e80:	2301      	movs	r3, #1
 8002e82:	6163      	str	r3, [r4, #20]
 8002e84:	b002      	add	sp, #8
 8002e86:	bd70      	pop	{r4, r5, r6, pc}
 8002e88:	ab01      	add	r3, sp, #4
 8002e8a:	466a      	mov	r2, sp
 8002e8c:	f7ff ffca 	bl	8002e24 <__swhatbuf_r>
 8002e90:	9900      	ldr	r1, [sp, #0]
 8002e92:	4605      	mov	r5, r0
 8002e94:	4630      	mov	r0, r6
 8002e96:	f7ff f9c7 	bl	8002228 <_malloc_r>
 8002e9a:	b948      	cbnz	r0, 8002eb0 <__smakebuf_r+0x44>
 8002e9c:	f9b4 300c 	ldrsh.w	r3, [r4, #12]
 8002ea0:	059a      	lsls	r2, r3, #22
 8002ea2:	d4ef      	bmi.n	8002e84 <__smakebuf_r+0x18>
 8002ea4:	f023 0303 	bic.w	r3, r3, #3
 8002ea8:	f043 0302 	orr.w	r3, r3, #2
 8002eac:	81a3      	strh	r3, [r4, #12]
 8002eae:	e7e3      	b.n	8002e78 <__smakebuf_r+0xc>
 8002eb0:	4b0d      	ldr	r3, [pc, #52]	; (8002ee8 <__smakebuf_r+0x7c>)
 8002eb2:	62b3      	str	r3, [r6, #40]	; 0x28
 8002eb4:	89a3      	ldrh	r3, [r4, #12]
 8002eb6:	6020      	str	r0, [r4, #0]
 8002eb8:	f043 0380 	orr.w	r3, r3, #128	; 0x80
 8002ebc:	81a3      	strh	r3, [r4, #12]
 8002ebe:	9b00      	ldr	r3, [sp, #0]
 8002ec0:	6163      	str	r3, [r4, #20]
 8002ec2:	9b01      	ldr	r3, [sp, #4]
 8002ec4:	6120      	str	r0, [r4, #16]
 8002ec6:	b15b      	cbz	r3, 8002ee0 <__smakebuf_r+0x74>
 8002ec8:	f9b4 100e 	ldrsh.w	r1, [r4, #14]
 8002ecc:	4630      	mov	r0, r6
 8002ece:	f000 f831 	bl	8002f34 <_isatty_r>
 8002ed2:	b128      	cbz	r0, 8002ee0 <__smakebuf_r+0x74>
 8002ed4:	89a3      	ldrh	r3, [r4, #12]
 8002ed6:	f023 0303 	bic.w	r3, r3, #3
 8002eda:	f043 0301 	orr.w	r3, r3, #1
 8002ede:	81a3      	strh	r3, [r4, #12]
 8002ee0:	89a3      	ldrh	r3, [r4, #12]
 8002ee2:	431d      	orrs	r5, r3
 8002ee4:	81a5      	strh	r5, [r4, #12]
 8002ee6:	e7cd      	b.n	8002e84 <__smakebuf_r+0x18>
 8002ee8:	08002375 	.word	0x08002375

08002eec <_read_r>:
 8002eec:	b538      	push	{r3, r4, r5, lr}
 8002eee:	4c07      	ldr	r4, [pc, #28]	; (8002f0c <_read_r+0x20>)
 8002ef0:	4605      	mov	r5, r0
 8002ef2:	4608      	mov	r0, r1
 8002ef4:	4611      	mov	r1, r2
 8002ef6:	2200      	movs	r2, #0
 8002ef8:	6022      	str	r2, [r4, #0]
 8002efa:	461a      	mov	r2, r3
 8002efc:	f7fd fe28 	bl	8000b50 <_read>
 8002f00:	1c43      	adds	r3, r0, #1
 8002f02:	d102      	bne.n	8002f0a <_read_r+0x1e>
 8002f04:	6823      	ldr	r3, [r4, #0]
 8002f06:	b103      	cbz	r3, 8002f0a <_read_r+0x1e>
 8002f08:	602b      	str	r3, [r5, #0]
 8002f0a:	bd38      	pop	{r3, r4, r5, pc}
 8002f0c:	200001c0 	.word	0x200001c0

08002f10 <_fstat_r>:
 8002f10:	b538      	push	{r3, r4, r5, lr}
 8002f12:	4c07      	ldr	r4, [pc, #28]	; (8002f30 <_fstat_r+0x20>)
 8002f14:	2300      	movs	r3, #0
 8002f16:	4605      	mov	r5, r0
 8002f18:	4608      	mov	r0, r1
 8002f1a:	4611      	mov	r1, r2
 8002f1c:	6023      	str	r3, [r4, #0]
 8002f1e:	f7fd fe37 	bl	8000b90 <_fstat>
 8002f22:	1c43      	adds	r3, r0, #1
 8002f24:	d102      	bne.n	8002f2c <_fstat_r+0x1c>
 8002f26:	6823      	ldr	r3, [r4, #0]
 8002f28:	b103      	cbz	r3, 8002f2c <_fstat_r+0x1c>
 8002f2a:	602b      	str	r3, [r5, #0]
 8002f2c:	bd38      	pop	{r3, r4, r5, pc}
 8002f2e:	bf00      	nop
 8002f30:	200001c0 	.word	0x200001c0

08002f34 <_isatty_r>:
 8002f34:	b538      	push	{r3, r4, r5, lr}
 8002f36:	4c06      	ldr	r4, [pc, #24]	; (8002f50 <_isatty_r+0x1c>)
 8002f38:	2300      	movs	r3, #0
 8002f3a:	4605      	mov	r5, r0
 8002f3c:	4608      	mov	r0, r1
 8002f3e:	6023      	str	r3, [r4, #0]
 8002f40:	f7fd fe2c 	bl	8000b9c <_isatty>
 8002f44:	1c43      	adds	r3, r0, #1
 8002f46:	d102      	bne.n	8002f4e <_isatty_r+0x1a>
 8002f48:	6823      	ldr	r3, [r4, #0]
 8002f4a:	b103      	cbz	r3, 8002f4e <_isatty_r+0x1a>
 8002f4c:	602b      	str	r3, [r5, #0]
 8002f4e:	bd38      	pop	{r3, r4, r5, pc}
 8002f50:	200001c0 	.word	0x200001c0

08002f54 <_init>:
 8002f54:	b5f8      	push	{r3, r4, r5, r6, r7, lr}
 8002f56:	bf00      	nop
 8002f58:	bcf8      	pop	{r3, r4, r5, r6, r7}
 8002f5a:	bc08      	pop	{r3}
 8002f5c:	469e      	mov	lr, r3
 8002f5e:	4770      	bx	lr

08002f60 <_fini>:
 8002f60:	b5f8      	push	{r3, r4, r5, r6, r7, lr}
 8002f62:	bf00      	nop
 8002f64:	bcf8      	pop	{r3, r4, r5, r6, r7}
 8002f66:	bc08      	pop	{r3}
 8002f68:	469e      	mov	lr, r3
 8002f6a:	4770      	bx	lr
